
test.elf:     file format elf32-littlearm


Disassembly of section .text:

00000000 <__cs3_interrupt_vector>:
       0:	00 60 00 20 c5 05 00 00 41 7a 01 00 99 05 00 00     .`. ....Az......
      10:	43 7a 01 00 45 7a 01 00 47 7a 01 00 00 00 00 00     Cz..Ez..Gz......
	...
      2c:	09 8a 00 00 bd 05 00 00 00 00 00 00 25 8b 00 00     ............%...
      3c:	61 8b 00 00 bd 05 00 00 bd 05 00 00 bd 05 00 00     a...............
      4c:	bd 05 00 00 bd 05 00 00 b1 0e 00 00 c5 0e 00 00     ................
      5c:	bd 05 00 00 bd 05 00 00 bd 05 00 00 bd 05 00 00     ................
      6c:	bd 05 00 00 bd 05 00 00 bd 05 00 00 bd 05 00 00     ................
      7c:	bd 05 00 00 bd 05 00 00 bd 05 00 00 bd 05 00 00     ................
      8c:	bd 05 00 00 bd 05 00 00 bd 05 00 00 bd 05 00 00     ................
      9c:	bd 05 00 00 bd 05 00 00 bd 05 00 00 bd 05 00 00     ................
      ac:	bd 05 00 00 bd 05 00 00 bd 05 00 00 bd 05 00 00     ................
      bc:	bd 05 00 00 bd 05 00 00 d9 0e 00 00 bd 05 00 00     ................
      cc:	bd 05 00 00 bd 05 00 00 bd 05 00 00 bd 05 00 00     ................
      dc:	7d 0a 00 00 91 0a 00 00 00 00 00 00 bd 05 00 00     }...............
      ec:	bd 05 00 00 99 14 00 00 bd 05 00 00 bd 05 00 00     ................
      fc:	bd 05 00 00 bd 05 00 00 bd 05 00 00 bd 05 00 00     ................
     10c:	bd 05 00 00 bd 05 00 00 bd 05 00 00 bd 05 00 00     ................
     11c:	bd 05 00 00 bd 05 00 00 bd 05 00 00 bd 05 00 00     ................
     12c:	ed 0e 00 00 01 0f 00 00 15 0f 00 00 29 0f 00 00     ............)...
     13c:	3d 0f 00 00 00 00 00 00 00 00 00 00 00 00 00 00     =...............
     14c:	00 00 00 00 bd 05 00 00 bd 05 00 00 bd 05 00 00     ................
     15c:	bd 05 00 00 00 00 00 00 00 00 00 00 00 00 00 00     ................
	...
     1b0:	bd 05 00 00 bd 05 00 00 bd 05 00 00 bd 05 00 00     ................
     1c0:	bd 05 00 00 bd 05 00 00 bd 05 00 00 bd 05 00 00     ................
     1d0:	bd 05 00 00 bd 05 00 00 bd 05 00 00 bd 05 00 00     ................
     1e0:	bd 05 00 00 bd 05 00 00 bd 05 00 00 00 00 00 00     ................
     1f0:	00 00 00 00 bd 05 00 00 bd 05 00 00 bd 05 00 00     ................
     200:	bd 05 00 00 00 00 00 00 00 00 00 00 00 00 00 00     ................
     210:	bd 05 00 00 bd 05 00 00 bd 05 00 00 bd 05 00 00     ................
     220:	bd 05 00 00 bd 05 00 00 bd 05 00 00 bd 05 00 00     ................
	...
     258:	bd 05 00 00 bd 05 00 00 bd 05 00 00 bd 05 00 00     ................
     268:	bd 05 00 00                                         ....

0000026c <__cs3_reset_generic_m>:
     26c:	4800      	ldr	r0, [pc, #0]	; (270 <__cs3_reset_generic_m+0x4>)
     26e:	4700      	bx	r0
     270:	00000275 	.word	0x00000275

00000274 <__cs3_start_asm_sim>:
     274:	a10c      	add	r1, pc, #48	; (adr r1, 2a8 <__cs3_heap_start_ptr>)
     276:	2016      	movs	r0, #22
     278:	beab      	bkpt	0x00ab
     27a:	2800      	cmp	r0, #0
     27c:	db0b      	blt.n	296 <__cs3_start_asm_sim+0x22>
     27e:	4a0a      	ldr	r2, [pc, #40]	; (2a8 <__cs3_heap_start_ptr>)
     280:	4906      	ldr	r1, [pc, #24]	; (29c <__cs3_start_asm_sim+0x28>)
     282:	468d      	mov	sp, r1
     284:	6890      	ldr	r0, [r2, #8]
     286:	2800      	cmp	r0, #0
     288:	d000      	beq.n	28c <__cs3_start_asm_sim+0x18>
     28a:	4685      	mov	sp, r0
     28c:	4904      	ldr	r1, [pc, #16]	; (2a0 <__cs3_start_asm_sim+0x2c>)
     28e:	6850      	ldr	r0, [r2, #4]
     290:	2800      	cmp	r0, #0
     292:	d000      	beq.n	296 <__cs3_start_asm_sim+0x22>
     294:	6008      	str	r0, [r1, #0]
     296:	4803      	ldr	r0, [pc, #12]	; (2a4 <__cs3_start_asm_sim+0x30>)
     298:	4700      	bx	r0
     29a:	0000      	.short	0x0000
     29c:	20006000 	.word	0x20006000
     2a0:	20000a04 	.word	0x20000a04
     2a4:	000002ad 	.word	0x000002ad

000002a8 <__cs3_heap_start_ptr>:
     2a8:	20001af8 	.word	0x20001af8

000002ac <__cs3_start_c>:
     2ac:	b580      	push	{r7, lr}
     2ae:	4c11      	ldr	r4, [pc, #68]	; (2f4 <__cs3_start_c+0x48>)
     2b0:	4811      	ldr	r0, [pc, #68]	; (2f8 <__cs3_start_c+0x4c>)
     2b2:	e01a      	b.n	2ea <__cs3_start_c+0x3e>
     2b4:	6847      	ldr	r7, [r0, #4]
     2b6:	6881      	ldr	r1, [r0, #8]
     2b8:	68c6      	ldr	r6, [r0, #12]
     2ba:	428f      	cmp	r7, r1
     2bc:	d009      	beq.n	2d2 <__cs3_start_c+0x26>
     2be:	2500      	movs	r5, #0
     2c0:	e004      	b.n	2cc <__cs3_start_c+0x20>
     2c2:	e8f7 2302 	ldrd	r2, r3, [r7], #8
     2c6:	3508      	adds	r5, #8
     2c8:	e8e1 2302 	strd	r2, r3, [r1], #8
     2cc:	42b5      	cmp	r5, r6
     2ce:	d1f8      	bne.n	2c2 <__cs3_start_c+0x16>
     2d0:	e000      	b.n	2d4 <__cs3_start_c+0x28>
     2d2:	1989      	adds	r1, r1, r6
     2d4:	6906      	ldr	r6, [r0, #16]
     2d6:	2500      	movs	r5, #0
     2d8:	e004      	b.n	2e4 <__cs3_start_c+0x38>
     2da:	3508      	adds	r5, #8
     2dc:	2200      	movs	r2, #0
     2de:	2300      	movs	r3, #0
     2e0:	e8e1 2302 	strd	r2, r3, [r1], #8
     2e4:	42b5      	cmp	r5, r6
     2e6:	d1f8      	bne.n	2da <__cs3_start_c+0x2e>
     2e8:	3014      	adds	r0, #20
     2ea:	f114 34ff 	adds.w	r4, r4, #4294967295
     2ee:	d2e1      	bcs.n	2b4 <__cs3_start_c+0x8>
     2f0:	f017 fb8e 	bl	17a10 <__cs3_premain>
     2f4:	00000001 	.word	0x00000001
     2f8:	00018440 	.word	0x00018440

000002fc <__do_global_dtors_aux>:
     2fc:	b510      	push	{r4, lr}
     2fe:	f241 0400 	movw	r4, #4096	; 0x1000
     302:	f2c2 0400 	movt	r4, #8192	; 0x2000
     306:	7823      	ldrb	r3, [r4, #0]
     308:	b963      	cbnz	r3, 324 <__do_global_dtors_aux+0x28>
     30a:	f240 0000 	movw	r0, #0
     30e:	f2c0 0000 	movt	r0, #0
     312:	b128      	cbz	r0, 320 <__do_global_dtors_aux+0x24>
     314:	f647 2098 	movw	r0, #31384	; 0x7a98
     318:	f2c0 0001 	movt	r0, #1
     31c:	f3af 8000 	nop.w
     320:	2101      	movs	r1, #1
     322:	7021      	strb	r1, [r4, #0]
     324:	bd10      	pop	{r4, pc}
     326:	bf00      	nop

00000328 <frame_dummy>:
     328:	b508      	push	{r3, lr}
     32a:	f240 0300 	movw	r3, #0
     32e:	f2c0 0300 	movt	r3, #0
     332:	b14b      	cbz	r3, 348 <frame_dummy+0x20>
     334:	f647 2098 	movw	r0, #31384	; 0x7a98
     338:	f241 0104 	movw	r1, #4100	; 0x1004
     33c:	f2c0 0001 	movt	r0, #1
     340:	f2c2 0100 	movt	r1, #8192	; 0x2000
     344:	f3af 8000 	nop.w
     348:	f240 0000 	movw	r0, #0
     34c:	f2c2 0000 	movt	r0, #8192	; 0x2000
     350:	6801      	ldr	r1, [r0, #0]
     352:	b129      	cbz	r1, 360 <frame_dummy+0x38>
     354:	f240 0300 	movw	r3, #0
     358:	f2c0 0300 	movt	r3, #0
     35c:	b103      	cbz	r3, 360 <frame_dummy+0x38>
     35e:	4798      	blx	r3
     360:	bd08      	pop	{r3, pc}
     362:	bf00      	nop
     364:	0000      	movs	r0, r0
	...

00000368 <os_main>:
     368:	b580      	push	{r7, lr}
     36a:	b08a      	sub	sp, #40	; 0x28
     36c:	af04      	add	r7, sp, #16
     36e:	6078      	str	r0, [r7, #4]
     370:	6039      	str	r1, [r7, #0]
     372:	f647 20e4 	movw	r0, #31460	; 0x7ae4
     376:	f2c0 0001 	movt	r0, #1
     37a:	f011 fb45 	bl	11a08 <printf>
     37e:	687b      	ldr	r3, [r7, #4]
     380:	2b01      	cmp	r3, #1
     382:	dd0c      	ble.n	39e <os_main+0x36>
     384:	683b      	ldr	r3, [r7, #0]
     386:	f103 0304 	add.w	r3, r3, #4
     38a:	681b      	ldr	r3, [r3, #0]
     38c:	f04f 6050 	mov.w	r0, #218103808	; 0xd000000
     390:	f240 2101 	movw	r1, #513	; 0x201
     394:	461a      	mov	r2, r3
     396:	f002 fb31 	bl	29fc <nmranet_gc_if_init>
     39a:	6178      	str	r0, [r7, #20]
     39c:	e013      	b.n	3c6 <os_main+0x5e>
     39e:	f641 6381 	movw	r3, #7809	; 0x1e81
     3a2:	f2c0 0301 	movt	r3, #1
     3a6:	9300      	str	r3, [sp, #0]
     3a8:	f04f 6050 	mov.w	r0, #218103808	; 0xd000000
     3ac:	f240 2101 	movw	r1, #513	; 0x201
     3b0:	f647 22f4 	movw	r2, #31476	; 0x7af4
     3b4:	f2c0 0201 	movt	r2, #1
     3b8:	f641 6365 	movw	r3, #7781	; 0x1e65
     3bc:	f2c0 0301 	movt	r3, #1
     3c0:	f001 ff7e 	bl	22c0 <nmranet_can_if_init>
     3c4:	6178      	str	r0, [r7, #20]
     3c6:	697b      	ldr	r3, [r7, #20]
     3c8:	9300      	str	r3, [sp, #0]
     3ca:	f647 3300 	movw	r3, #31488	; 0x7b00
     3ce:	f2c0 0301 	movt	r3, #1
     3d2:	9301      	str	r3, [sp, #4]
     3d4:	f04f 0300 	mov.w	r3, #0
     3d8:	9302      	str	r3, [sp, #8]
     3da:	f04f 6050 	mov.w	r0, #218103808	; 0xd000000
     3de:	f100 0001 	add.w	r0, r0, #1
     3e2:	f240 2101 	movw	r1, #513	; 0x201
     3e6:	f04f 32ff 	mov.w	r2, #4294967295
     3ea:	f64f 73ff 	movw	r3, #65535	; 0xffff
     3ee:	f005 fb1b 	bl	5a28 <nmranet_node_create>
     3f2:	6138      	str	r0, [r7, #16]
     3f4:	6938      	ldr	r0, [r7, #16]
     3f6:	f005 fea3 	bl	6140 <nmranet_node_initialized>
     3fa:	f04f 0301 	mov.w	r3, #1
     3fe:	9300      	str	r3, [sp, #0]
     400:	6938      	ldr	r0, [r7, #16]
     402:	a329      	add	r3, pc, #164	; (adr r3, 4a8 <os_main+0x140>)
     404:	e9d3 2300 	ldrd	r2, r3, [r3]
     408:	f004 fb6c 	bl	4ae4 <nmranet_event_consumer>
     40c:	f04f 0301 	mov.w	r3, #1
     410:	9300      	str	r3, [sp, #0]
     412:	6938      	ldr	r0, [r7, #16]
     414:	a326      	add	r3, pc, #152	; (adr r3, 4b0 <os_main+0x148>)
     416:	e9d3 2300 	ldrd	r2, r3, [r3]
     41a:	f004 fbbf 	bl	4b9c <nmranet_event_producer>
     41e:	f04f 0300 	mov.w	r3, #0
     422:	9300      	str	r3, [sp, #0]
     424:	6938      	ldr	r0, [r7, #16]
     426:	a320      	add	r3, pc, #128	; (adr r3, 4a8 <os_main+0x140>)
     428:	e9d3 2300 	ldrd	r2, r3, [r3]
     42c:	f004 fbb6 	bl	4b9c <nmranet_event_producer>
     430:	6938      	ldr	r0, [r7, #16]
     432:	f006 fa3d 	bl	68b0 <nmranet_event_consume>
     436:	e9c7 0102 	strd	r0, r1, [r7, #8]
     43a:	68ba      	ldr	r2, [r7, #8]
     43c:	68fb      	ldr	r3, [r7, #12]
     43e:	4313      	orrs	r3, r2
     440:	2b00      	cmp	r3, #0
     442:	bf0c      	ite	eq
     444:	2300      	moveq	r3, #0
     446:	2301      	movne	r3, #1
     448:	b2db      	uxtb	r3, r3
     44a:	2b00      	cmp	r3, #0
     44c:	d1f0      	bne.n	430 <os_main+0xc8>
     44e:	f04f 0002 	mov.w	r0, #2
     452:	f002 feb9 	bl	31c8 <sleep>
     456:	f04f 0301 	mov.w	r3, #1
     45a:	9300      	str	r3, [sp, #0]
     45c:	6938      	ldr	r0, [r7, #16]
     45e:	a314      	add	r3, pc, #80	; (adr r3, 4b0 <os_main+0x148>)
     460:	e9d3 2300 	ldrd	r2, r3, [r3]
     464:	f004 fbac 	bl	4bc0 <nmranet_event_produce>
     468:	f04f 0300 	mov.w	r3, #0
     46c:	9300      	str	r3, [sp, #0]
     46e:	6938      	ldr	r0, [r7, #16]
     470:	a30f      	add	r3, pc, #60	; (adr r3, 4b0 <os_main+0x148>)
     472:	e9d3 2300 	ldrd	r2, r3, [r3]
     476:	f004 fba3 	bl	4bc0 <nmranet_event_produce>
     47a:	f04f 0002 	mov.w	r0, #2
     47e:	f002 fea3 	bl	31c8 <sleep>
     482:	f04f 0301 	mov.w	r3, #1
     486:	9300      	str	r3, [sp, #0]
     488:	6938      	ldr	r0, [r7, #16]
     48a:	a307      	add	r3, pc, #28	; (adr r3, 4a8 <os_main+0x140>)
     48c:	e9d3 2300 	ldrd	r2, r3, [r3]
     490:	f004 fb96 	bl	4bc0 <nmranet_event_produce>
     494:	f04f 0300 	mov.w	r3, #0
     498:	9300      	str	r3, [sp, #0]
     49a:	6938      	ldr	r0, [r7, #16]
     49c:	a302      	add	r3, pc, #8	; (adr r3, 4a8 <os_main+0x140>)
     49e:	e9d3 2300 	ldrd	r2, r3, [r3]
     4a2:	f004 fb8d 	bl	4bc0 <nmranet_event_produce>
     4a6:	e7c3      	b.n	430 <os_main+0xc8>
     4a8:	02650013 	.word	0x02650013
     4ac:	05020102 	.word	0x05020102
     4b0:	02650012 	.word	0x02650012
     4b4:	05020102 	.word	0x05020102

000004b8 <hw_init>:
     4b8:	b580      	push	{r7, lr}
     4ba:	af00      	add	r7, sp, #0
     4bc:	f44f 60a8 	mov.w	r0, #1344	; 0x540
     4c0:	f2c0 40c0 	movt	r0, #1216	; 0x4c0
     4c4:	f00e fdba 	bl	f03c <SysCtlClockSet>
     4c8:	f04f 0001 	mov.w	r0, #1
     4cc:	f2c2 0000 	movt	r0, #8192	; 0x2000
     4d0:	f00e fbe6 	bl	eca0 <SysCtlPeripheralEnable>
     4d4:	f04f 0001 	mov.w	r0, #1
     4d8:	f00e f94c 	bl	e774 <GPIOPinConfigure>
     4dc:	f240 4001 	movw	r0, #1025	; 0x401
     4e0:	f00e f948 	bl	e774 <GPIOPinConfigure>
     4e4:	f04f 2040 	mov.w	r0, #1073758208	; 0x40004000
     4e8:	f04f 0103 	mov.w	r1, #3
     4ec:	f00e f918 	bl	e720 <GPIOPinTypeUART>
     4f0:	f04f 0001 	mov.w	r0, #1
     4f4:	f2c2 0000 	movt	r0, #8192	; 0x2000
     4f8:	f00e fbd2 	bl	eca0 <SysCtlPeripheralEnable>
     4fc:	f641 0006 	movw	r0, #6150	; 0x1806
     500:	f00e f938 	bl	e774 <GPIOPinConfigure>
     504:	f641 4006 	movw	r0, #7174	; 0x1c06
     508:	f00e f934 	bl	e774 <GPIOPinConfigure>
     50c:	f04f 2040 	mov.w	r0, #1073758208	; 0x40004000
     510:	f04f 01c0 	mov.w	r1, #192	; 0xc0
     514:	f00d ffc0 	bl	e498 <GPIOPinTypeCAN>
     518:	bd80      	pop	{r7, pc}
     51a:	bf00      	nop

0000051c <get_registers_from_stack>:
     51c:	b480      	push	{r7}
     51e:	b083      	sub	sp, #12
     520:	af00      	add	r7, sp, #0
     522:	6078      	str	r0, [r7, #4]
     524:	687b      	ldr	r3, [r7, #4]
     526:	681a      	ldr	r2, [r3, #0]
     528:	f641 23dc 	movw	r3, #6876	; 0x1adc
     52c:	f2c2 0300 	movt	r3, #8192	; 0x2000
     530:	601a      	str	r2, [r3, #0]
     532:	687b      	ldr	r3, [r7, #4]
     534:	685a      	ldr	r2, [r3, #4]
     536:	f641 23f4 	movw	r3, #6900	; 0x1af4
     53a:	f2c2 0300 	movt	r3, #8192	; 0x2000
     53e:	601a      	str	r2, [r3, #0]
     540:	687b      	ldr	r3, [r7, #4]
     542:	689a      	ldr	r2, [r3, #8]
     544:	f641 23e4 	movw	r3, #6884	; 0x1ae4
     548:	f2c2 0300 	movt	r3, #8192	; 0x2000
     54c:	601a      	str	r2, [r3, #0]
     54e:	687b      	ldr	r3, [r7, #4]
     550:	68da      	ldr	r2, [r3, #12]
     552:	f641 23d8 	movw	r3, #6872	; 0x1ad8
     556:	f2c2 0300 	movt	r3, #8192	; 0x2000
     55a:	601a      	str	r2, [r3, #0]
     55c:	687b      	ldr	r3, [r7, #4]
     55e:	691a      	ldr	r2, [r3, #16]
     560:	f641 23f0 	movw	r3, #6896	; 0x1af0
     564:	f2c2 0300 	movt	r3, #8192	; 0x2000
     568:	601a      	str	r2, [r3, #0]
     56a:	687b      	ldr	r3, [r7, #4]
     56c:	695a      	ldr	r2, [r3, #20]
     56e:	f641 23e0 	movw	r3, #6880	; 0x1ae0
     572:	f2c2 0300 	movt	r3, #8192	; 0x2000
     576:	601a      	str	r2, [r3, #0]
     578:	687b      	ldr	r3, [r7, #4]
     57a:	699a      	ldr	r2, [r3, #24]
     57c:	f641 23e8 	movw	r3, #6888	; 0x1ae8
     580:	f2c2 0300 	movt	r3, #8192	; 0x2000
     584:	601a      	str	r2, [r3, #0]
     586:	687b      	ldr	r3, [r7, #4]
     588:	69da      	ldr	r2, [r3, #28]
     58a:	f641 23ec 	movw	r3, #6892	; 0x1aec
     58e:	f2c2 0300 	movt	r3, #8192	; 0x2000
     592:	601a      	str	r2, [r3, #0]
     594:	e7fe      	b.n	594 <get_registers_from_stack+0x78>
     596:	bf00      	nop

00000598 <hard_fault_handler>:
     598:	b480      	push	{r7}
     59a:	af00      	add	r7, sp, #0
     59c:	f01e 0f04 	tst.w	lr, #4
     5a0:	bf0c      	ite	eq
     5a2:	f3ef 8008 	mrseq	r0, MSP
     5a6:	f3ef 8009 	mrsne	r0, PSP
     5aa:	6981      	ldr	r1, [r0, #24]
     5ac:	4a00      	ldr	r2, [pc, #0]	; (5b0 <handler2_address_const>)
     5ae:	4710      	bx	r2

000005b0 <handler2_address_const>:
     5b0:	0000051d 	.word	0x0000051d
     5b4:	46bd      	mov	sp, r7
     5b6:	bc80      	pop	{r7}
     5b8:	4770      	bx	lr
     5ba:	bf00      	nop

000005bc <adc0_seq0_interrupt_handler>:
     5bc:	b480      	push	{r7}
     5be:	af00      	add	r7, sp, #0
     5c0:	e7fe      	b.n	5c0 <adc0_seq0_interrupt_handler+0x4>
     5c2:	bf00      	nop

000005c4 <__cs3_reset>:
     5c4:	4801      	ldr	r0, [pc, #4]	; (5cc <__cs3_start_asm+0x4>)
     5c6:	4700      	bx	r0

000005c8 <__cs3_start_asm>:
     5c8:	4801      	ldr	r0, [pc, #4]	; (5d0 <__cs3_start_asm+0x8>)
     5ca:	4700      	bx	r0
     5cc:	000005c9 	.word	0x000005c9
     5d0:	000002ad 	.word	0x000002ad
     5d4:	00000000 	.word	0x00000000

000005d8 <os_mq_timedreceive>:
     5d8:	b580      	push	{r7, lr}
     5da:	b086      	sub	sp, #24
     5dc:	af00      	add	r7, sp, #0
     5de:	60f8      	str	r0, [r7, #12]
     5e0:	60b9      	str	r1, [r7, #8]
     5e2:	e9c7 2300 	strd	r2, r3, [r7]
     5e6:	687b      	ldr	r3, [r7, #4]
     5e8:	f44f 727a 	mov.w	r2, #1000	; 0x3e8
     5ec:	fb02 f203 	mul.w	r2, r2, r3
     5f0:	683b      	ldr	r3, [r7, #0]
     5f2:	f04f 0100 	mov.w	r1, #0
     5f6:	fb01 f303 	mul.w	r3, r1, r3
     5fa:	18d1      	adds	r1, r2, r3
     5fc:	683a      	ldr	r2, [r7, #0]
     5fe:	f44f 737a 	mov.w	r3, #1000	; 0x3e8
     602:	fba2 2303 	umull	r2, r3, r2, r3
     606:	18c9      	adds	r1, r1, r3
     608:	460b      	mov	r3, r1
     60a:	4610      	mov	r0, r2
     60c:	4619      	mov	r1, r3
     60e:	a30e      	add	r3, pc, #56	; (adr r3, 648 <os_mq_timedreceive+0x70>)
     610:	e9d3 2300 	ldrd	r2, r3, [r3]
     614:	f010 f80a 	bl	1062c <__aeabi_ldivmod>
     618:	4602      	mov	r2, r0
     61a:	460b      	mov	r3, r1
     61c:	4613      	mov	r3, r2
     61e:	617b      	str	r3, [r7, #20]
     620:	68f8      	ldr	r0, [r7, #12]
     622:	68b9      	ldr	r1, [r7, #8]
     624:	697a      	ldr	r2, [r7, #20]
     626:	f04f 0300 	mov.w	r3, #0
     62a:	f006 fbef 	bl	6e0c <xQueueGenericReceive>
     62e:	4603      	mov	r3, r0
     630:	2b01      	cmp	r3, #1
     632:	d002      	beq.n	63a <os_mq_timedreceive+0x62>
     634:	f04f 0301 	mov.w	r3, #1
     638:	e001      	b.n	63e <os_mq_timedreceive+0x66>
     63a:	f04f 0300 	mov.w	r3, #0
     63e:	4618      	mov	r0, r3
     640:	f107 0718 	add.w	r7, r7, #24
     644:	46bd      	mov	sp, r7
     646:	bd80      	pop	{r7, pc}
     648:	3b9aca00 	.word	0x3b9aca00
     64c:	00000000 	.word	0x00000000

00000650 <os_mq_send_from_isr>:
     650:	b580      	push	{r7, lr}
     652:	b084      	sub	sp, #16
     654:	af00      	add	r7, sp, #0
     656:	6078      	str	r0, [r7, #4]
     658:	6039      	str	r1, [r7, #0]
     65a:	6878      	ldr	r0, [r7, #4]
     65c:	6839      	ldr	r1, [r7, #0]
     65e:	f107 030c 	add.w	r3, r7, #12
     662:	461a      	mov	r2, r3
     664:	f04f 0300 	mov.w	r3, #0
     668:	f006 fb8a 	bl	6d80 <xQueueGenericSendFromISR>
     66c:	4603      	mov	r3, r0
     66e:	2b01      	cmp	r3, #1
     670:	d002      	beq.n	678 <os_mq_send_from_isr+0x28>
     672:	f04f 0303 	mov.w	r3, #3
     676:	e001      	b.n	67c <os_mq_send_from_isr+0x2c>
     678:	f04f 0300 	mov.w	r3, #0
     67c:	4618      	mov	r0, r3
     67e:	f107 0710 	add.w	r7, r7, #16
     682:	46bd      	mov	sp, r7
     684:	bd80      	pop	{r7, pc}
     686:	bf00      	nop

00000688 <os_mq_receive_from_isr>:
     688:	b580      	push	{r7, lr}
     68a:	b084      	sub	sp, #16
     68c:	af00      	add	r7, sp, #0
     68e:	6078      	str	r0, [r7, #4]
     690:	6039      	str	r1, [r7, #0]
     692:	6878      	ldr	r0, [r7, #4]
     694:	6839      	ldr	r1, [r7, #0]
     696:	f107 030c 	add.w	r3, r7, #12
     69a:	461a      	mov	r2, r3
     69c:	f006 fc7a 	bl	6f94 <xQueueReceiveFromISR>
     6a0:	4603      	mov	r3, r0
     6a2:	2b01      	cmp	r3, #1
     6a4:	d002      	beq.n	6ac <os_mq_receive_from_isr+0x24>
     6a6:	f04f 0302 	mov.w	r3, #2
     6aa:	e001      	b.n	6b0 <os_mq_receive_from_isr+0x28>
     6ac:	f04f 0300 	mov.w	r3, #0
     6b0:	4618      	mov	r0, r3
     6b2:	f107 0710 	add.w	r7, r7, #16
     6b6:	46bd      	mov	sp, r7
     6b8:	bd80      	pop	{r7, pc}
     6ba:	bf00      	nop

000006bc <stellaris_can_init>:
     6bc:	b590      	push	{r4, r7, lr}
     6be:	b089      	sub	sp, #36	; 0x24
     6c0:	af00      	add	r7, sp, #0
     6c2:	6078      	str	r0, [r7, #4]
     6c4:	687b      	ldr	r3, [r7, #4]
     6c6:	68db      	ldr	r3, [r3, #12]
     6c8:	61fb      	str	r3, [r7, #28]
     6ca:	69fb      	ldr	r3, [r7, #28]
     6cc:	6a9a      	ldr	r2, [r3, #40]	; 0x28
     6ce:	f04f 0300 	mov.w	r3, #0
     6d2:	f2c4 0304 	movt	r3, #16388	; 0x4004
     6d6:	429a      	cmp	r2, r3
     6d8:	d008      	beq.n	6ec <stellaris_can_init+0x30>
     6da:	f44f 5380 	mov.w	r3, #4096	; 0x1000
     6de:	f2c4 0304 	movt	r3, #16388	; 0x4004
     6e2:	429a      	cmp	r2, r3
     6e4:	d009      	beq.n	6fa <stellaris_can_init+0x3e>
     6e6:	f04f 33ff 	mov.w	r3, #4294967295
     6ea:	e054      	b.n	796 <stellaris_can_init+0xda>
     6ec:	f44f 7080 	mov.w	r0, #256	; 0x100
     6f0:	f2c0 0010 	movt	r0, #16
     6f4:	f00e fad4 	bl	eca0 <SysCtlPeripheralEnable>
     6f8:	e006      	b.n	708 <stellaris_can_init+0x4c>
     6fa:	f44f 7000 	mov.w	r0, #512	; 0x200
     6fe:	f2c0 0010 	movt	r0, #16
     702:	f00e facd 	bl	eca0 <SysCtlPeripheralEnable>
     706:	bf00      	nop
     708:	69fb      	ldr	r3, [r7, #28]
     70a:	6a9b      	ldr	r3, [r3, #40]	; 0x28
     70c:	4618      	mov	r0, r3
     70e:	f00d f94d 	bl	d9ac <CANInit>
     712:	69fb      	ldr	r3, [r7, #28]
     714:	6a9c      	ldr	r4, [r3, #40]	; 0x28
     716:	f00e fd4b 	bl	f1b0 <SysCtlClockGet>
     71a:	4603      	mov	r3, r0
     71c:	4620      	mov	r0, r4
     71e:	4619      	mov	r1, r3
     720:	f64e 0248 	movw	r2, #59464	; 0xe848
     724:	f2c0 0201 	movt	r2, #1
     728:	f00d f9bc 	bl	daa4 <CANBitRateSet>
     72c:	69fb      	ldr	r3, [r7, #28]
     72e:	6a9b      	ldr	r3, [r3, #40]	; 0x28
     730:	4618      	mov	r0, r3
     732:	f04f 010e 	mov.w	r1, #14
     736:	f00d fa4d 	bl	dbd4 <CANIntEnable>
     73a:	f04f 0300 	mov.w	r3, #0
     73e:	60bb      	str	r3, [r7, #8]
     740:	f04f 0300 	mov.w	r3, #0
     744:	60fb      	str	r3, [r7, #12]
     746:	f04f 030a 	mov.w	r3, #10
     74a:	613b      	str	r3, [r7, #16]
     74c:	f04f 0308 	mov.w	r3, #8
     750:	617b      	str	r3, [r7, #20]
     752:	69fb      	ldr	r3, [r7, #28]
     754:	6a9b      	ldr	r3, [r3, #40]	; 0x28
     756:	4618      	mov	r0, r3
     758:	f04f 0101 	mov.w	r1, #1
     75c:	f107 0308 	add.w	r3, r7, #8
     760:	461a      	mov	r2, r3
     762:	f04f 0302 	mov.w	r3, #2
     766:	f00d fae6 	bl	dd36 <CANMessageSet>
     76a:	69fa      	ldr	r2, [r7, #28]
     76c:	f240 73a1 	movw	r3, #1953	; 0x7a1
     770:	f2c0 0300 	movt	r3, #0
     774:	6013      	str	r3, [r2, #0]
     776:	69fa      	ldr	r2, [r7, #28]
     778:	f240 73cd 	movw	r3, #1997	; 0x7cd
     77c:	f2c0 0300 	movt	r3, #0
     780:	6053      	str	r3, [r2, #4]
     782:	69fa      	ldr	r2, [r7, #28]
     784:	f240 73f9 	movw	r3, #2041	; 0x7f9
     788:	f2c0 0300 	movt	r3, #0
     78c:	6093      	str	r3, [r2, #8]
     78e:	6878      	ldr	r0, [r7, #4]
     790:	f008 ff92 	bl	96b8 <can_init>
     794:	4603      	mov	r3, r0
     796:	4618      	mov	r0, r3
     798:	f107 0724 	add.w	r7, r7, #36	; 0x24
     79c:	46bd      	mov	sp, r7
     79e:	bd90      	pop	{r4, r7, pc}

000007a0 <stellaris_can_enable>:
     7a0:	b580      	push	{r7, lr}
     7a2:	b084      	sub	sp, #16
     7a4:	af00      	add	r7, sp, #0
     7a6:	6078      	str	r0, [r7, #4]
     7a8:	687b      	ldr	r3, [r7, #4]
     7aa:	68db      	ldr	r3, [r3, #12]
     7ac:	60fb      	str	r3, [r7, #12]
     7ae:	68fb      	ldr	r3, [r7, #12]
     7b0:	6adb      	ldr	r3, [r3, #44]	; 0x2c
     7b2:	4618      	mov	r0, r3
     7b4:	f00e f88e 	bl	e8d4 <IntEnable>
     7b8:	68fb      	ldr	r3, [r7, #12]
     7ba:	6a9b      	ldr	r3, [r3, #40]	; 0x28
     7bc:	4618      	mov	r0, r3
     7be:	f00d f938 	bl	da32 <CANEnable>
     7c2:	f107 0710 	add.w	r7, r7, #16
     7c6:	46bd      	mov	sp, r7
     7c8:	bd80      	pop	{r7, pc}
     7ca:	bf00      	nop

000007cc <stellaris_can_disable>:
     7cc:	b580      	push	{r7, lr}
     7ce:	b084      	sub	sp, #16
     7d0:	af00      	add	r7, sp, #0
     7d2:	6078      	str	r0, [r7, #4]
     7d4:	687b      	ldr	r3, [r7, #4]
     7d6:	68db      	ldr	r3, [r3, #12]
     7d8:	60fb      	str	r3, [r7, #12]
     7da:	68fb      	ldr	r3, [r7, #12]
     7dc:	6adb      	ldr	r3, [r3, #44]	; 0x2c
     7de:	4618      	mov	r0, r3
     7e0:	f00e f8a8 	bl	e934 <IntDisable>
     7e4:	68fb      	ldr	r3, [r7, #12]
     7e6:	6a9b      	ldr	r3, [r3, #40]	; 0x28
     7e8:	4618      	mov	r0, r3
     7ea:	f00d f92d 	bl	da48 <CANDisable>
     7ee:	f107 0710 	add.w	r7, r7, #16
     7f2:	46bd      	mov	sp, r7
     7f4:	bd80      	pop	{r7, pc}
     7f6:	bf00      	nop

000007f8 <stellaris_can_tx_msg>:
     7f8:	b580      	push	{r7, lr}
     7fa:	b08c      	sub	sp, #48	; 0x30
     7fc:	af00      	add	r7, sp, #0
     7fe:	6078      	str	r0, [r7, #4]
     800:	687b      	ldr	r3, [r7, #4]
     802:	68db      	ldr	r3, [r3, #12]
     804:	62fb      	str	r3, [r7, #44]	; 0x2c
     806:	6afb      	ldr	r3, [r7, #44]	; 0x2c
     808:	f893 3038 	ldrb.w	r3, [r3, #56]	; 0x38
     80c:	2b00      	cmp	r3, #0
     80e:	d162      	bne.n	8d6 <stellaris_can_tx_msg+0xde>
     810:	6afb      	ldr	r3, [r7, #44]	; 0x2c
     812:	69db      	ldr	r3, [r3, #28]
     814:	4618      	mov	r0, r3
     816:	f107 031c 	add.w	r3, r7, #28
     81a:	4619      	mov	r1, r3
     81c:	f04f 0200 	mov.w	r2, #0
     820:	f04f 0300 	mov.w	r3, #0
     824:	f7ff fed8 	bl	5d8 <os_mq_timedreceive>
     828:	4603      	mov	r3, r0
     82a:	2b00      	cmp	r3, #0
     82c:	d153      	bne.n	8d6 <stellaris_can_tx_msg+0xde>
     82e:	69fb      	ldr	r3, [r7, #28]
     830:	60bb      	str	r3, [r7, #8]
     832:	f04f 0300 	mov.w	r3, #0
     836:	60fb      	str	r3, [r7, #12]
     838:	f04f 0301 	mov.w	r3, #1
     83c:	613b      	str	r3, [r7, #16]
     83e:	f897 3020 	ldrb.w	r3, [r7, #32]
     842:	f003 0320 	and.w	r3, r3, #32
     846:	b2db      	uxtb	r3, r3
     848:	2b00      	cmp	r3, #0
     84a:	d003      	beq.n	854 <stellaris_can_tx_msg+0x5c>
     84c:	693b      	ldr	r3, [r7, #16]
     84e:	f043 0304 	orr.w	r3, r3, #4
     852:	613b      	str	r3, [r7, #16]
     854:	f897 3020 	ldrb.w	r3, [r7, #32]
     858:	f003 0310 	and.w	r3, r3, #16
     85c:	b2db      	uxtb	r3, r3
     85e:	2b00      	cmp	r3, #0
     860:	d003      	beq.n	86a <stellaris_can_tx_msg+0x72>
     862:	693b      	ldr	r3, [r7, #16]
     864:	f043 0340 	orr.w	r3, r3, #64	; 0x40
     868:	613b      	str	r3, [r7, #16]
     86a:	f897 3020 	ldrb.w	r3, [r7, #32]
     86e:	f3c3 0303 	ubfx	r3, r3, #0, #4
     872:	b2db      	uxtb	r3, r3
     874:	617b      	str	r3, [r7, #20]
     876:	6afb      	ldr	r3, [r7, #44]	; 0x2c
     878:	f103 0330 	add.w	r3, r3, #48	; 0x30
     87c:	61bb      	str	r3, [r7, #24]
     87e:	6afb      	ldr	r3, [r7, #44]	; 0x2c
     880:	f103 0130 	add.w	r1, r3, #48	; 0x30
     884:	f897 3020 	ldrb.w	r3, [r7, #32]
     888:	f3c3 0303 	ubfx	r3, r3, #0, #4
     88c:	b2db      	uxtb	r3, r3
     88e:	f107 021c 	add.w	r2, r7, #28
     892:	f102 0205 	add.w	r2, r2, #5
     896:	4608      	mov	r0, r1
     898:	4611      	mov	r1, r2
     89a:	461a      	mov	r2, r3
     89c:	f010 ffe0 	bl	11860 <memcpy>
     8a0:	6afb      	ldr	r3, [r7, #44]	; 0x2c
     8a2:	6adb      	ldr	r3, [r3, #44]	; 0x2c
     8a4:	4618      	mov	r0, r3
     8a6:	f00e f845 	bl	e934 <IntDisable>
     8aa:	6afb      	ldr	r3, [r7, #44]	; 0x2c
     8ac:	6a9b      	ldr	r3, [r3, #40]	; 0x28
     8ae:	4618      	mov	r0, r3
     8b0:	f04f 0102 	mov.w	r1, #2
     8b4:	f107 0308 	add.w	r3, r7, #8
     8b8:	461a      	mov	r2, r3
     8ba:	f04f 0300 	mov.w	r3, #0
     8be:	f00d fa3a 	bl	dd36 <CANMessageSet>
     8c2:	6afb      	ldr	r3, [r7, #44]	; 0x2c
     8c4:	f04f 0201 	mov.w	r2, #1
     8c8:	f883 2038 	strb.w	r2, [r3, #56]	; 0x38
     8cc:	6afb      	ldr	r3, [r7, #44]	; 0x2c
     8ce:	6adb      	ldr	r3, [r3, #44]	; 0x2c
     8d0:	4618      	mov	r0, r3
     8d2:	f00d ffff 	bl	e8d4 <IntEnable>
     8d6:	f107 0730 	add.w	r7, r7, #48	; 0x30
     8da:	46bd      	mov	sp, r7
     8dc:	bd80      	pop	{r7, pc}
     8de:	bf00      	nop

000008e0 <can_interrupt_handler>:
     8e0:	b580      	push	{r7, lr}
     8e2:	b098      	sub	sp, #96	; 0x60
     8e4:	af00      	add	r7, sp, #0
     8e6:	6078      	str	r0, [r7, #4]
     8e8:	687b      	ldr	r3, [r7, #4]
     8ea:	68db      	ldr	r3, [r3, #12]
     8ec:	65bb      	str	r3, [r7, #88]	; 0x58
     8ee:	6dbb      	ldr	r3, [r7, #88]	; 0x58
     8f0:	6a9b      	ldr	r3, [r3, #40]	; 0x28
     8f2:	4618      	mov	r0, r3
     8f4:	f04f 0100 	mov.w	r1, #0
     8f8:	f00d f984 	bl	dc04 <CANIntStatus>
     8fc:	65f8      	str	r0, [r7, #92]	; 0x5c
     8fe:	6dfb      	ldr	r3, [r7, #92]	; 0x5c
     900:	f5b3 4f00 	cmp.w	r3, #32768	; 0x8000
     904:	d107      	bne.n	916 <can_interrupt_handler+0x36>
     906:	6dbb      	ldr	r3, [r7, #88]	; 0x58
     908:	6a9b      	ldr	r3, [r3, #40]	; 0x28
     90a:	4618      	mov	r0, r3
     90c:	f04f 0100 	mov.w	r1, #0
     910:	f00d f9cf 	bl	dcb2 <CANStatusGet>
     914:	65f8      	str	r0, [r7, #92]	; 0x5c
     916:	6dfb      	ldr	r3, [r7, #92]	; 0x5c
     918:	2b01      	cmp	r3, #1
     91a:	d14a      	bne.n	9b2 <can_interrupt_handler+0xd2>
     91c:	f107 033c 	add.w	r3, r7, #60	; 0x3c
     920:	657b      	str	r3, [r7, #84]	; 0x54
     922:	6dbb      	ldr	r3, [r7, #88]	; 0x58
     924:	6a9b      	ldr	r3, [r3, #40]	; 0x28
     926:	4618      	mov	r0, r3
     928:	f04f 0101 	mov.w	r1, #1
     92c:	f107 0344 	add.w	r3, r7, #68	; 0x44
     930:	461a      	mov	r2, r3
     932:	f04f 0301 	mov.w	r3, #1
     936:	f00d fad4 	bl	dee2 <CANMessageGet>
     93a:	6c7b      	ldr	r3, [r7, #68]	; 0x44
     93c:	62fb      	str	r3, [r7, #44]	; 0x2c
     93e:	f897 3030 	ldrb.w	r3, [r7, #48]	; 0x30
     942:	f36f 1304 	bfc	r3, #4, #1
     946:	f887 3030 	strb.w	r3, [r7, #48]	; 0x30
     94a:	f897 3030 	ldrb.w	r3, [r7, #48]	; 0x30
     94e:	f36f 1345 	bfc	r3, #5, #1
     952:	f887 3030 	strb.w	r3, [r7, #48]	; 0x30
     956:	f897 3030 	ldrb.w	r3, [r7, #48]	; 0x30
     95a:	f36f 1386 	bfc	r3, #6, #1
     95e:	f887 3030 	strb.w	r3, [r7, #48]	; 0x30
     962:	6d3b      	ldr	r3, [r7, #80]	; 0x50
     964:	b2db      	uxtb	r3, r3
     966:	f003 030f 	and.w	r3, r3, #15
     96a:	b2da      	uxtb	r2, r3
     96c:	f897 3030 	ldrb.w	r3, [r7, #48]	; 0x30
     970:	f362 0303 	bfi	r3, r2, #0, #4
     974:	f887 3030 	strb.w	r3, [r7, #48]	; 0x30
     978:	6d3b      	ldr	r3, [r7, #80]	; 0x50
     97a:	f107 022c 	add.w	r2, r7, #44	; 0x2c
     97e:	f102 0205 	add.w	r2, r2, #5
     982:	4610      	mov	r0, r2
     984:	f107 023c 	add.w	r2, r7, #60	; 0x3c
     988:	4611      	mov	r1, r2
     98a:	461a      	mov	r2, r3
     98c:	f010 ff68 	bl	11860 <memcpy>
     990:	6dbb      	ldr	r3, [r7, #88]	; 0x58
     992:	6a1b      	ldr	r3, [r3, #32]
     994:	4618      	mov	r0, r3
     996:	f107 032c 	add.w	r3, r7, #44	; 0x2c
     99a:	4619      	mov	r1, r3
     99c:	f7ff fe58 	bl	650 <os_mq_send_from_isr>
     9a0:	4603      	mov	r3, r0
     9a2:	2b03      	cmp	r3, #3
     9a4:	d105      	bne.n	9b2 <can_interrupt_handler+0xd2>
     9a6:	6dbb      	ldr	r3, [r7, #88]	; 0x58
     9a8:	6a5b      	ldr	r3, [r3, #36]	; 0x24
     9aa:	f103 0201 	add.w	r2, r3, #1
     9ae:	6dbb      	ldr	r3, [r7, #88]	; 0x58
     9b0:	625a      	str	r2, [r3, #36]	; 0x24
     9b2:	6dfb      	ldr	r3, [r7, #92]	; 0x5c
     9b4:	2b02      	cmp	r3, #2
     9b6:	d15c      	bne.n	a72 <can_interrupt_handler+0x192>
     9b8:	6dbb      	ldr	r3, [r7, #88]	; 0x58
     9ba:	6a9b      	ldr	r3, [r3, #40]	; 0x28
     9bc:	4618      	mov	r0, r3
     9be:	f04f 0102 	mov.w	r1, #2
     9c2:	f00d f938 	bl	dc36 <CANIntClear>
     9c6:	6dbb      	ldr	r3, [r7, #88]	; 0x58
     9c8:	69db      	ldr	r3, [r3, #28]
     9ca:	4618      	mov	r0, r3
     9cc:	f107 031c 	add.w	r3, r7, #28
     9d0:	4619      	mov	r1, r3
     9d2:	f7ff fe59 	bl	688 <os_mq_receive_from_isr>
     9d6:	4603      	mov	r3, r0
     9d8:	2b00      	cmp	r3, #0
     9da:	d145      	bne.n	a68 <can_interrupt_handler+0x188>
     9dc:	69fb      	ldr	r3, [r7, #28]
     9de:	60bb      	str	r3, [r7, #8]
     9e0:	f04f 0300 	mov.w	r3, #0
     9e4:	60fb      	str	r3, [r7, #12]
     9e6:	f04f 0301 	mov.w	r3, #1
     9ea:	613b      	str	r3, [r7, #16]
     9ec:	f897 3020 	ldrb.w	r3, [r7, #32]
     9f0:	f003 0320 	and.w	r3, r3, #32
     9f4:	b2db      	uxtb	r3, r3
     9f6:	2b00      	cmp	r3, #0
     9f8:	d003      	beq.n	a02 <can_interrupt_handler+0x122>
     9fa:	693b      	ldr	r3, [r7, #16]
     9fc:	f043 0304 	orr.w	r3, r3, #4
     a00:	613b      	str	r3, [r7, #16]
     a02:	f897 3020 	ldrb.w	r3, [r7, #32]
     a06:	f003 0310 	and.w	r3, r3, #16
     a0a:	b2db      	uxtb	r3, r3
     a0c:	2b00      	cmp	r3, #0
     a0e:	d003      	beq.n	a18 <can_interrupt_handler+0x138>
     a10:	693b      	ldr	r3, [r7, #16]
     a12:	f043 0340 	orr.w	r3, r3, #64	; 0x40
     a16:	613b      	str	r3, [r7, #16]
     a18:	f897 3020 	ldrb.w	r3, [r7, #32]
     a1c:	f3c3 0303 	ubfx	r3, r3, #0, #4
     a20:	b2db      	uxtb	r3, r3
     a22:	617b      	str	r3, [r7, #20]
     a24:	6dbb      	ldr	r3, [r7, #88]	; 0x58
     a26:	f103 0330 	add.w	r3, r3, #48	; 0x30
     a2a:	61bb      	str	r3, [r7, #24]
     a2c:	6dbb      	ldr	r3, [r7, #88]	; 0x58
     a2e:	f103 0130 	add.w	r1, r3, #48	; 0x30
     a32:	f897 3020 	ldrb.w	r3, [r7, #32]
     a36:	f3c3 0303 	ubfx	r3, r3, #0, #4
     a3a:	b2db      	uxtb	r3, r3
     a3c:	f107 021c 	add.w	r2, r7, #28
     a40:	f102 0205 	add.w	r2, r2, #5
     a44:	4608      	mov	r0, r1
     a46:	4611      	mov	r1, r2
     a48:	461a      	mov	r2, r3
     a4a:	f010 ff09 	bl	11860 <memcpy>
     a4e:	6dbb      	ldr	r3, [r7, #88]	; 0x58
     a50:	6a9b      	ldr	r3, [r3, #40]	; 0x28
     a52:	4618      	mov	r0, r3
     a54:	f04f 0102 	mov.w	r1, #2
     a58:	f107 0308 	add.w	r3, r7, #8
     a5c:	461a      	mov	r2, r3
     a5e:	f04f 0300 	mov.w	r3, #0
     a62:	f00d f968 	bl	dd36 <CANMessageSet>
     a66:	e004      	b.n	a72 <can_interrupt_handler+0x192>
     a68:	6dbb      	ldr	r3, [r7, #88]	; 0x58
     a6a:	f04f 0200 	mov.w	r2, #0
     a6e:	f883 2038 	strb.w	r2, [r3, #56]	; 0x38
     a72:	f107 0760 	add.w	r7, r7, #96	; 0x60
     a76:	46bd      	mov	sp, r7
     a78:	bd80      	pop	{r7, pc}
     a7a:	bf00      	nop

00000a7c <can0_interrupt_handler>:
     a7c:	b580      	push	{r7, lr}
     a7e:	af00      	add	r7, sp, #0
     a80:	f640 2008 	movw	r0, #2568	; 0xa08
     a84:	f2c2 0000 	movt	r0, #8192	; 0x2000
     a88:	f7ff ff2a 	bl	8e0 <can_interrupt_handler>
     a8c:	bd80      	pop	{r7, pc}
     a8e:	bf00      	nop

00000a90 <can1_interrupt_handler>:
     a90:	b580      	push	{r7, lr}
     a92:	af00      	add	r7, sp, #0
     a94:	f640 2018 	movw	r0, #2584	; 0xa18
     a98:	f2c2 0000 	movt	r0, #8192	; 0x2000
     a9c:	f7ff ff20 	bl	8e0 <can_interrupt_handler>
     aa0:	bd80      	pop	{r7, pc}
     aa2:	bf00      	nop
     aa4:	f3af 8000 	nop.w

00000aa8 <os_mq_timedreceive>:
     aa8:	b580      	push	{r7, lr}
     aaa:	b086      	sub	sp, #24
     aac:	af00      	add	r7, sp, #0
     aae:	60f8      	str	r0, [r7, #12]
     ab0:	60b9      	str	r1, [r7, #8]
     ab2:	e9c7 2300 	strd	r2, r3, [r7]
     ab6:	687b      	ldr	r3, [r7, #4]
     ab8:	f44f 727a 	mov.w	r2, #1000	; 0x3e8
     abc:	fb02 f203 	mul.w	r2, r2, r3
     ac0:	683b      	ldr	r3, [r7, #0]
     ac2:	f04f 0100 	mov.w	r1, #0
     ac6:	fb01 f303 	mul.w	r3, r1, r3
     aca:	18d1      	adds	r1, r2, r3
     acc:	683a      	ldr	r2, [r7, #0]
     ace:	f44f 737a 	mov.w	r3, #1000	; 0x3e8
     ad2:	fba2 2303 	umull	r2, r3, r2, r3
     ad6:	18c9      	adds	r1, r1, r3
     ad8:	460b      	mov	r3, r1
     ada:	4610      	mov	r0, r2
     adc:	4619      	mov	r1, r3
     ade:	a30e      	add	r3, pc, #56	; (adr r3, b18 <__cs3_region_init_size_ram+0x50>)
     ae0:	e9d3 2300 	ldrd	r2, r3, [r3]
     ae4:	f00f fda2 	bl	1062c <__aeabi_ldivmod>
     ae8:	4602      	mov	r2, r0
     aea:	460b      	mov	r3, r1
     aec:	4613      	mov	r3, r2
     aee:	617b      	str	r3, [r7, #20]
     af0:	68f8      	ldr	r0, [r7, #12]
     af2:	68b9      	ldr	r1, [r7, #8]
     af4:	697a      	ldr	r2, [r7, #20]
     af6:	f04f 0300 	mov.w	r3, #0
     afa:	f006 f987 	bl	6e0c <xQueueGenericReceive>
     afe:	4603      	mov	r3, r0
     b00:	2b01      	cmp	r3, #1
     b02:	d002      	beq.n	b0a <__cs3_region_init_size_ram+0x42>
     b04:	f04f 0301 	mov.w	r3, #1
     b08:	e001      	b.n	b0e <__cs3_region_init_size_ram+0x46>
     b0a:	f04f 0300 	mov.w	r3, #0
     b0e:	4618      	mov	r0, r3
     b10:	f107 0718 	add.w	r7, r7, #24
     b14:	46bd      	mov	sp, r7
     b16:	bd80      	pop	{r7, pc}
     b18:	3b9aca00 	.word	0x3b9aca00
     b1c:	00000000 	.word	0x00000000

00000b20 <os_mq_send_from_isr>:
     b20:	b580      	push	{r7, lr}
     b22:	b084      	sub	sp, #16
     b24:	af00      	add	r7, sp, #0
     b26:	6078      	str	r0, [r7, #4]
     b28:	6039      	str	r1, [r7, #0]
     b2a:	6878      	ldr	r0, [r7, #4]
     b2c:	6839      	ldr	r1, [r7, #0]
     b2e:	f107 030c 	add.w	r3, r7, #12
     b32:	461a      	mov	r2, r3
     b34:	f04f 0300 	mov.w	r3, #0
     b38:	f006 f922 	bl	6d80 <xQueueGenericSendFromISR>
     b3c:	4603      	mov	r3, r0
     b3e:	2b01      	cmp	r3, #1
     b40:	d002      	beq.n	b48 <os_mq_send_from_isr+0x28>
     b42:	f04f 0303 	mov.w	r3, #3
     b46:	e001      	b.n	b4c <os_mq_send_from_isr+0x2c>
     b48:	f04f 0300 	mov.w	r3, #0
     b4c:	4618      	mov	r0, r3
     b4e:	f107 0710 	add.w	r7, r7, #16
     b52:	46bd      	mov	sp, r7
     b54:	bd80      	pop	{r7, pc}
     b56:	bf00      	nop

00000b58 <os_mq_receive_from_isr>:
     b58:	b580      	push	{r7, lr}
     b5a:	b084      	sub	sp, #16
     b5c:	af00      	add	r7, sp, #0
     b5e:	6078      	str	r0, [r7, #4]
     b60:	6039      	str	r1, [r7, #0]
     b62:	6878      	ldr	r0, [r7, #4]
     b64:	6839      	ldr	r1, [r7, #0]
     b66:	f107 030c 	add.w	r3, r7, #12
     b6a:	461a      	mov	r2, r3
     b6c:	f006 fa12 	bl	6f94 <xQueueReceiveFromISR>
     b70:	4603      	mov	r3, r0
     b72:	2b01      	cmp	r3, #1
     b74:	d002      	beq.n	b7c <os_mq_receive_from_isr+0x24>
     b76:	f04f 0302 	mov.w	r3, #2
     b7a:	e001      	b.n	b80 <os_mq_receive_from_isr+0x28>
     b7c:	f04f 0300 	mov.w	r3, #0
     b80:	4618      	mov	r0, r3
     b82:	f107 0710 	add.w	r7, r7, #16
     b86:	46bd      	mov	sp, r7
     b88:	bd80      	pop	{r7, pc}
     b8a:	bf00      	nop

00000b8c <stellaris_uart_init>:
     b8c:	b590      	push	{r4, r7, lr}
     b8e:	b085      	sub	sp, #20
     b90:	af00      	add	r7, sp, #0
     b92:	6078      	str	r0, [r7, #4]
     b94:	687b      	ldr	r3, [r7, #4]
     b96:	68db      	ldr	r3, [r3, #12]
     b98:	60fb      	str	r3, [r7, #12]
     b9a:	68fb      	ldr	r3, [r7, #12]
     b9c:	6b9b      	ldr	r3, [r3, #56]	; 0x38
     b9e:	f44f 4270 	mov.w	r2, #61440	; 0xf000
     ba2:	f2c4 0200 	movt	r2, #16384	; 0x4000
     ba6:	4293      	cmp	r3, r2
     ba8:	d04f      	beq.n	c4a <stellaris_uart_init+0xbe>
     baa:	f44f 4270 	mov.w	r2, #61440	; 0xf000
     bae:	f2c4 0200 	movt	r2, #16384	; 0x4000
     bb2:	4293      	cmp	r3, r2
     bb4:	d812      	bhi.n	bdc <stellaris_uart_init+0x50>
     bb6:	f44f 4250 	mov.w	r2, #53248	; 0xd000
     bba:	f2c4 0200 	movt	r2, #16384	; 0x4000
     bbe:	4293      	cmp	r3, r2
     bc0:	d035      	beq.n	c2e <stellaris_uart_init+0xa2>
     bc2:	f44f 4260 	mov.w	r2, #57344	; 0xe000
     bc6:	f2c4 0200 	movt	r2, #16384	; 0x4000
     bca:	4293      	cmp	r3, r2
     bcc:	d036      	beq.n	c3c <stellaris_uart_init+0xb0>
     bce:	f44f 4240 	mov.w	r2, #49152	; 0xc000
     bd2:	f2c4 0200 	movt	r2, #16384	; 0x4000
     bd6:	4293      	cmp	r3, r2
     bd8:	d022      	beq.n	c20 <stellaris_uart_init+0x94>
     bda:	e01e      	b.n	c1a <stellaris_uart_init+0x8e>
     bdc:	f44f 5280 	mov.w	r2, #4096	; 0x1000
     be0:	f2c4 0201 	movt	r2, #16385	; 0x4001
     be4:	4293      	cmp	r3, r2
     be6:	d03e      	beq.n	c66 <stellaris_uart_init+0xda>
     be8:	f44f 5280 	mov.w	r2, #4096	; 0x1000
     bec:	f2c4 0201 	movt	r2, #16385	; 0x4001
     bf0:	4293      	cmp	r3, r2
     bf2:	d806      	bhi.n	c02 <stellaris_uart_init+0x76>
     bf4:	f04f 0200 	mov.w	r2, #0
     bf8:	f2c4 0201 	movt	r2, #16385	; 0x4001
     bfc:	4293      	cmp	r3, r2
     bfe:	d02b      	beq.n	c58 <stellaris_uart_init+0xcc>
     c00:	e00b      	b.n	c1a <stellaris_uart_init+0x8e>
     c02:	f44f 5200 	mov.w	r2, #8192	; 0x2000
     c06:	f2c4 0201 	movt	r2, #16385	; 0x4001
     c0a:	4293      	cmp	r3, r2
     c0c:	d032      	beq.n	c74 <stellaris_uart_init+0xe8>
     c0e:	f44f 5240 	mov.w	r2, #12288	; 0x3000
     c12:	f2c4 0201 	movt	r2, #16385	; 0x4001
     c16:	4293      	cmp	r3, r2
     c18:	d033      	beq.n	c82 <stellaris_uart_init+0xf6>
     c1a:	f04f 33ff 	mov.w	r3, #4294967295
     c1e:	e072      	b.n	d06 <stellaris_uart_init+0x17a>
     c20:	f04f 0001 	mov.w	r0, #1
     c24:	f2c1 0000 	movt	r0, #4096	; 0x1000
     c28:	f00e f83a 	bl	eca0 <SysCtlPeripheralEnable>
     c2c:	e030      	b.n	c90 <stellaris_uart_init+0x104>
     c2e:	f04f 0002 	mov.w	r0, #2
     c32:	f2c1 0000 	movt	r0, #4096	; 0x1000
     c36:	f00e f833 	bl	eca0 <SysCtlPeripheralEnable>
     c3a:	e029      	b.n	c90 <stellaris_uart_init+0x104>
     c3c:	f04f 0004 	mov.w	r0, #4
     c40:	f2c1 0000 	movt	r0, #4096	; 0x1000
     c44:	f00e f82c 	bl	eca0 <SysCtlPeripheralEnable>
     c48:	e022      	b.n	c90 <stellaris_uart_init+0x104>
     c4a:	f641 0003 	movw	r0, #6147	; 0x1803
     c4e:	f2cf 0000 	movt	r0, #61440	; 0xf000
     c52:	f00e f825 	bl	eca0 <SysCtlPeripheralEnable>
     c56:	e01b      	b.n	c90 <stellaris_uart_init+0x104>
     c58:	f641 0004 	movw	r0, #6148	; 0x1804
     c5c:	f2cf 0000 	movt	r0, #61440	; 0xf000
     c60:	f00e f81e 	bl	eca0 <SysCtlPeripheralEnable>
     c64:	e014      	b.n	c90 <stellaris_uart_init+0x104>
     c66:	f641 0005 	movw	r0, #6149	; 0x1805
     c6a:	f2cf 0000 	movt	r0, #61440	; 0xf000
     c6e:	f00e f817 	bl	eca0 <SysCtlPeripheralEnable>
     c72:	e00d      	b.n	c90 <stellaris_uart_init+0x104>
     c74:	f641 0006 	movw	r0, #6150	; 0x1806
     c78:	f2cf 0000 	movt	r0, #61440	; 0xf000
     c7c:	f00e f810 	bl	eca0 <SysCtlPeripheralEnable>
     c80:	e006      	b.n	c90 <stellaris_uart_init+0x104>
     c82:	f641 0007 	movw	r0, #6151	; 0x1807
     c86:	f2cf 0000 	movt	r0, #61440	; 0xf000
     c8a:	f00e f809 	bl	eca0 <SysCtlPeripheralEnable>
     c8e:	bf00      	nop
     c90:	68fb      	ldr	r3, [r7, #12]
     c92:	6b9c      	ldr	r4, [r3, #56]	; 0x38
     c94:	f00e fa8c 	bl	f1b0 <SysCtlClockGet>
     c98:	4603      	mov	r3, r0
     c9a:	4620      	mov	r0, r4
     c9c:	4619      	mov	r1, r3
     c9e:	f44f 32e1 	mov.w	r2, #115200	; 0x1c200
     ca2:	f04f 0360 	mov.w	r3, #96	; 0x60
     ca6:	f00e fcea 	bl	f67e <UARTConfigSetExpClk>
     caa:	68fb      	ldr	r3, [r7, #12]
     cac:	6b9b      	ldr	r3, [r3, #56]	; 0x38
     cae:	4618      	mov	r0, r3
     cb0:	f00e fd0c 	bl	f6cc <UARTFIFOEnable>
     cb4:	68fb      	ldr	r3, [r7, #12]
     cb6:	6b9b      	ldr	r3, [r3, #56]	; 0x38
     cb8:	4618      	mov	r0, r3
     cba:	f04f 0110 	mov.w	r1, #16
     cbe:	f00e fd4f 	bl	f760 <UARTTxIntModeSet>
     cc2:	68fb      	ldr	r3, [r7, #12]
     cc4:	6bdb      	ldr	r3, [r3, #60]	; 0x3c
     cc6:	4618      	mov	r0, r3
     cc8:	f00d fe04 	bl	e8d4 <IntEnable>
     ccc:	68fb      	ldr	r3, [r7, #12]
     cce:	6b9b      	ldr	r3, [r3, #56]	; 0x38
     cd0:	4618      	mov	r0, r3
     cd2:	f04f 0150 	mov.w	r1, #80	; 0x50
     cd6:	f00e fda2 	bl	f81e <UARTIntEnable>
     cda:	68fa      	ldr	r2, [r7, #12]
     cdc:	f640 5311 	movw	r3, #3345	; 0xd11
     ce0:	f2c0 0300 	movt	r3, #0
     ce4:	6013      	str	r3, [r2, #0]
     ce6:	68fa      	ldr	r2, [r7, #12]
     ce8:	f640 5331 	movw	r3, #3377	; 0xd31
     cec:	f2c0 0300 	movt	r3, #0
     cf0:	6053      	str	r3, [r2, #4]
     cf2:	68fa      	ldr	r2, [r7, #12]
     cf4:	f640 5351 	movw	r3, #3409	; 0xd51
     cf8:	f2c0 0300 	movt	r3, #0
     cfc:	6093      	str	r3, [r2, #8]
     cfe:	6878      	ldr	r0, [r7, #4]
     d00:	f008 ff52 	bl	9ba8 <serial_init>
     d04:	4603      	mov	r3, r0
     d06:	4618      	mov	r0, r3
     d08:	f107 0714 	add.w	r7, r7, #20
     d0c:	46bd      	mov	sp, r7
     d0e:	bd90      	pop	{r4, r7, pc}

00000d10 <stellaris_uart_enable>:
     d10:	b580      	push	{r7, lr}
     d12:	b084      	sub	sp, #16
     d14:	af00      	add	r7, sp, #0
     d16:	6078      	str	r0, [r7, #4]
     d18:	687b      	ldr	r3, [r7, #4]
     d1a:	68db      	ldr	r3, [r3, #12]
     d1c:	60fb      	str	r3, [r7, #12]
     d1e:	68fb      	ldr	r3, [r7, #12]
     d20:	6b9b      	ldr	r3, [r3, #56]	; 0x38
     d22:	4618      	mov	r0, r3
     d24:	f00e fc91 	bl	f64a <UARTEnable>
     d28:	f107 0710 	add.w	r7, r7, #16
     d2c:	46bd      	mov	sp, r7
     d2e:	bd80      	pop	{r7, pc}

00000d30 <stellaris_uart_disable>:
     d30:	b580      	push	{r7, lr}
     d32:	b084      	sub	sp, #16
     d34:	af00      	add	r7, sp, #0
     d36:	6078      	str	r0, [r7, #4]
     d38:	687b      	ldr	r3, [r7, #4]
     d3a:	68db      	ldr	r3, [r3, #12]
     d3c:	60fb      	str	r3, [r7, #12]
     d3e:	68fb      	ldr	r3, [r7, #12]
     d40:	6b9b      	ldr	r3, [r3, #56]	; 0x38
     d42:	4618      	mov	r0, r3
     d44:	f00e fc8c 	bl	f660 <UARTDisable>
     d48:	f107 0710 	add.w	r7, r7, #16
     d4c:	46bd      	mov	sp, r7
     d4e:	bd80      	pop	{r7, pc}

00000d50 <stellaris_uart_tx_char>:
     d50:	b580      	push	{r7, lr}
     d52:	b084      	sub	sp, #16
     d54:	af00      	add	r7, sp, #0
     d56:	6078      	str	r0, [r7, #4]
     d58:	687b      	ldr	r3, [r7, #4]
     d5a:	68db      	ldr	r3, [r3, #12]
     d5c:	60fb      	str	r3, [r7, #12]
     d5e:	68fb      	ldr	r3, [r7, #12]
     d60:	f893 3040 	ldrb.w	r3, [r3, #64]	; 0x40
     d64:	2b00      	cmp	r3, #0
     d66:	d133      	bne.n	dd0 <stellaris_uart_tx_char+0x80>
     d68:	68fb      	ldr	r3, [r7, #12]
     d6a:	6b9b      	ldr	r3, [r3, #56]	; 0x38
     d6c:	4618      	mov	r0, r3
     d6e:	f00e fd09 	bl	f784 <UARTSpaceAvail>
     d72:	4603      	mov	r3, r0
     d74:	2b00      	cmp	r3, #0
     d76:	d02b      	beq.n	dd0 <stellaris_uart_tx_char+0x80>
     d78:	68fb      	ldr	r3, [r7, #12]
     d7a:	6adb      	ldr	r3, [r3, #44]	; 0x2c
     d7c:	4618      	mov	r0, r3
     d7e:	f107 030b 	add.w	r3, r7, #11
     d82:	4619      	mov	r1, r3
     d84:	f04f 0200 	mov.w	r2, #0
     d88:	f04f 0300 	mov.w	r3, #0
     d8c:	f7ff fe8c 	bl	aa8 <os_mq_timedreceive>
     d90:	4603      	mov	r3, r0
     d92:	2b00      	cmp	r3, #0
     d94:	d11c      	bne.n	dd0 <stellaris_uart_tx_char+0x80>
     d96:	68fb      	ldr	r3, [r7, #12]
     d98:	6bdb      	ldr	r3, [r3, #60]	; 0x3c
     d9a:	4618      	mov	r0, r3
     d9c:	f00d fdca 	bl	e934 <IntDisable>
     da0:	68fb      	ldr	r3, [r7, #12]
     da2:	f04f 0201 	mov.w	r2, #1
     da6:	f883 2040 	strb.w	r2, [r3, #64]	; 0x40
     daa:	68fb      	ldr	r3, [r7, #12]
     dac:	6b9a      	ldr	r2, [r3, #56]	; 0x38
     dae:	7afb      	ldrb	r3, [r7, #11]
     db0:	4610      	mov	r0, r2
     db2:	4619      	mov	r1, r3
     db4:	f00e fcfc 	bl	f7b0 <UARTCharPutNonBlocking>
     db8:	68fb      	ldr	r3, [r7, #12]
     dba:	6b9b      	ldr	r3, [r3, #56]	; 0x38
     dbc:	4618      	mov	r0, r3
     dbe:	f04f 0120 	mov.w	r1, #32
     dc2:	f00e fd2c 	bl	f81e <UARTIntEnable>
     dc6:	68fb      	ldr	r3, [r7, #12]
     dc8:	6bdb      	ldr	r3, [r3, #60]	; 0x3c
     dca:	4618      	mov	r0, r3
     dcc:	f00d fd82 	bl	e8d4 <IntEnable>
     dd0:	f107 0710 	add.w	r7, r7, #16
     dd4:	46bd      	mov	sp, r7
     dd6:	bd80      	pop	{r7, pc}

00000dd8 <uart_interrupt_handler>:
     dd8:	b580      	push	{r7, lr}
     dda:	b086      	sub	sp, #24
     ddc:	af00      	add	r7, sp, #0
     dde:	6078      	str	r0, [r7, #4]
     de0:	687b      	ldr	r3, [r7, #4]
     de2:	68db      	ldr	r3, [r3, #12]
     de4:	617b      	str	r3, [r7, #20]
     de6:	697b      	ldr	r3, [r7, #20]
     de8:	6b9b      	ldr	r3, [r3, #56]	; 0x38
     dea:	4618      	mov	r0, r3
     dec:	f04f 0101 	mov.w	r1, #1
     df0:	f00e fd1e 	bl	f830 <UARTIntStatus>
     df4:	6138      	str	r0, [r7, #16]
     df6:	697b      	ldr	r3, [r7, #20]
     df8:	6b9b      	ldr	r3, [r3, #56]	; 0x38
     dfa:	4618      	mov	r0, r3
     dfc:	6939      	ldr	r1, [r7, #16]
     dfe:	f00e fd1c 	bl	f83a <UARTIntClear>
     e02:	e01c      	b.n	e3e <uart_interrupt_handler+0x66>
     e04:	697b      	ldr	r3, [r7, #20]
     e06:	6b9b      	ldr	r3, [r3, #56]	; 0x38
     e08:	4618      	mov	r0, r3
     e0a:	f00e fcc3 	bl	f794 <UARTCharGetNonBlocking>
     e0e:	60f8      	str	r0, [r7, #12]
     e10:	68fb      	ldr	r3, [r7, #12]
     e12:	2b00      	cmp	r3, #0
     e14:	db13      	blt.n	e3e <uart_interrupt_handler+0x66>
     e16:	68fb      	ldr	r3, [r7, #12]
     e18:	b2db      	uxtb	r3, r3
     e1a:	72fb      	strb	r3, [r7, #11]
     e1c:	697b      	ldr	r3, [r7, #20]
     e1e:	6b1b      	ldr	r3, [r3, #48]	; 0x30
     e20:	4618      	mov	r0, r3
     e22:	f107 030b 	add.w	r3, r7, #11
     e26:	4619      	mov	r1, r3
     e28:	f7ff fe7a 	bl	b20 <os_mq_send_from_isr>
     e2c:	4603      	mov	r3, r0
     e2e:	2b03      	cmp	r3, #3
     e30:	d105      	bne.n	e3e <uart_interrupt_handler+0x66>
     e32:	697b      	ldr	r3, [r7, #20]
     e34:	6b5b      	ldr	r3, [r3, #52]	; 0x34
     e36:	f103 0201 	add.w	r2, r3, #1
     e3a:	697b      	ldr	r3, [r7, #20]
     e3c:	635a      	str	r2, [r3, #52]	; 0x34
     e3e:	697b      	ldr	r3, [r7, #20]
     e40:	6b9b      	ldr	r3, [r3, #56]	; 0x38
     e42:	4618      	mov	r0, r3
     e44:	f00e fc96 	bl	f774 <UARTCharsAvail>
     e48:	4603      	mov	r3, r0
     e4a:	2b00      	cmp	r3, #0
     e4c:	d1da      	bne.n	e04 <uart_interrupt_handler+0x2c>
     e4e:	697b      	ldr	r3, [r7, #20]
     e50:	f893 3040 	ldrb.w	r3, [r3, #64]	; 0x40
     e54:	2b00      	cmp	r3, #0
     e56:	d026      	beq.n	ea6 <uart_interrupt_handler+0xce>
     e58:	697b      	ldr	r3, [r7, #20]
     e5a:	6b9b      	ldr	r3, [r3, #56]	; 0x38
     e5c:	4618      	mov	r0, r3
     e5e:	f00e fc91 	bl	f784 <UARTSpaceAvail>
     e62:	4603      	mov	r3, r0
     e64:	2b00      	cmp	r3, #0
     e66:	d01e      	beq.n	ea6 <uart_interrupt_handler+0xce>
     e68:	697b      	ldr	r3, [r7, #20]
     e6a:	6adb      	ldr	r3, [r3, #44]	; 0x2c
     e6c:	4618      	mov	r0, r3
     e6e:	f107 030a 	add.w	r3, r7, #10
     e72:	4619      	mov	r1, r3
     e74:	f7ff fe70 	bl	b58 <os_mq_receive_from_isr>
     e78:	4603      	mov	r3, r0
     e7a:	2b00      	cmp	r3, #0
     e7c:	d107      	bne.n	e8e <uart_interrupt_handler+0xb6>
     e7e:	697b      	ldr	r3, [r7, #20]
     e80:	6b9a      	ldr	r2, [r3, #56]	; 0x38
     e82:	7abb      	ldrb	r3, [r7, #10]
     e84:	4610      	mov	r0, r2
     e86:	4619      	mov	r1, r3
     e88:	f00e fc92 	bl	f7b0 <UARTCharPutNonBlocking>
     e8c:	e00b      	b.n	ea6 <uart_interrupt_handler+0xce>
     e8e:	697b      	ldr	r3, [r7, #20]
     e90:	f04f 0200 	mov.w	r2, #0
     e94:	f883 2040 	strb.w	r2, [r3, #64]	; 0x40
     e98:	697b      	ldr	r3, [r7, #20]
     e9a:	6b9b      	ldr	r3, [r3, #56]	; 0x38
     e9c:	4618      	mov	r0, r3
     e9e:	f04f 0120 	mov.w	r1, #32
     ea2:	f00e fcc0 	bl	f826 <UARTIntDisable>
     ea6:	f107 0718 	add.w	r7, r7, #24
     eaa:	46bd      	mov	sp, r7
     eac:	bd80      	pop	{r7, pc}
     eae:	bf00      	nop

00000eb0 <uart0_interrupt_handler>:
     eb0:	b580      	push	{r7, lr}
     eb2:	af00      	add	r7, sp, #0
     eb4:	f640 2028 	movw	r0, #2600	; 0xa28
     eb8:	f2c2 0000 	movt	r0, #8192	; 0x2000
     ebc:	f7ff ff8c 	bl	dd8 <uart_interrupt_handler>
     ec0:	bd80      	pop	{r7, pc}
     ec2:	bf00      	nop

00000ec4 <uart1_interrupt_handler>:
     ec4:	b580      	push	{r7, lr}
     ec6:	af00      	add	r7, sp, #0
     ec8:	f640 2038 	movw	r0, #2616	; 0xa38
     ecc:	f2c2 0000 	movt	r0, #8192	; 0x2000
     ed0:	f7ff ff82 	bl	dd8 <uart_interrupt_handler>
     ed4:	bd80      	pop	{r7, pc}
     ed6:	bf00      	nop

00000ed8 <uart2_interrupt_handler>:
     ed8:	b580      	push	{r7, lr}
     eda:	af00      	add	r7, sp, #0
     edc:	f640 2048 	movw	r0, #2632	; 0xa48
     ee0:	f2c2 0000 	movt	r0, #8192	; 0x2000
     ee4:	f7ff ff78 	bl	dd8 <uart_interrupt_handler>
     ee8:	bd80      	pop	{r7, pc}
     eea:	bf00      	nop

00000eec <uart3_interrupt_handler>:
     eec:	b580      	push	{r7, lr}
     eee:	af00      	add	r7, sp, #0
     ef0:	f640 2058 	movw	r0, #2648	; 0xa58
     ef4:	f2c2 0000 	movt	r0, #8192	; 0x2000
     ef8:	f7ff ff6e 	bl	dd8 <uart_interrupt_handler>
     efc:	bd80      	pop	{r7, pc}
     efe:	bf00      	nop

00000f00 <uart4_interrupt_handler>:
     f00:	b580      	push	{r7, lr}
     f02:	af00      	add	r7, sp, #0
     f04:	f640 2068 	movw	r0, #2664	; 0xa68
     f08:	f2c2 0000 	movt	r0, #8192	; 0x2000
     f0c:	f7ff ff64 	bl	dd8 <uart_interrupt_handler>
     f10:	bd80      	pop	{r7, pc}
     f12:	bf00      	nop

00000f14 <uart5_interrupt_handler>:
     f14:	b580      	push	{r7, lr}
     f16:	af00      	add	r7, sp, #0
     f18:	f640 2078 	movw	r0, #2680	; 0xa78
     f1c:	f2c2 0000 	movt	r0, #8192	; 0x2000
     f20:	f7ff ff5a 	bl	dd8 <uart_interrupt_handler>
     f24:	bd80      	pop	{r7, pc}
     f26:	bf00      	nop

00000f28 <uart6_interrupt_handler>:
     f28:	b580      	push	{r7, lr}
     f2a:	af00      	add	r7, sp, #0
     f2c:	f640 2088 	movw	r0, #2696	; 0xa88
     f30:	f2c2 0000 	movt	r0, #8192	; 0x2000
     f34:	f7ff ff50 	bl	dd8 <uart_interrupt_handler>
     f38:	bd80      	pop	{r7, pc}
     f3a:	bf00      	nop

00000f3c <uart7_interrupt_handler>:
     f3c:	b580      	push	{r7, lr}
     f3e:	af00      	add	r7, sp, #0
     f40:	f640 2098 	movw	r0, #2712	; 0xa98
     f44:	f2c2 0000 	movt	r0, #8192	; 0x2000
     f48:	f7ff ff46 	bl	dd8 <uart_interrupt_handler>
     f4c:	bd80      	pop	{r7, pc}
     f4e:	bf00      	nop

00000f50 <os_mq_timedreceive>:
     f50:	b580      	push	{r7, lr}
     f52:	b086      	sub	sp, #24
     f54:	af00      	add	r7, sp, #0
     f56:	60f8      	str	r0, [r7, #12]
     f58:	60b9      	str	r1, [r7, #8]
     f5a:	e9c7 2300 	strd	r2, r3, [r7]
     f5e:	687b      	ldr	r3, [r7, #4]
     f60:	f44f 727a 	mov.w	r2, #1000	; 0x3e8
     f64:	fb02 f203 	mul.w	r2, r2, r3
     f68:	683b      	ldr	r3, [r7, #0]
     f6a:	f04f 0100 	mov.w	r1, #0
     f6e:	fb01 f303 	mul.w	r3, r1, r3
     f72:	18d1      	adds	r1, r2, r3
     f74:	683a      	ldr	r2, [r7, #0]
     f76:	f44f 737a 	mov.w	r3, #1000	; 0x3e8
     f7a:	fba2 2303 	umull	r2, r3, r2, r3
     f7e:	18c9      	adds	r1, r1, r3
     f80:	460b      	mov	r3, r1
     f82:	4610      	mov	r0, r2
     f84:	4619      	mov	r1, r3
     f86:	a30e      	add	r3, pc, #56	; (adr r3, fc0 <os_mq_timedreceive+0x70>)
     f88:	e9d3 2300 	ldrd	r2, r3, [r3]
     f8c:	f00f fb4e 	bl	1062c <__aeabi_ldivmod>
     f90:	4602      	mov	r2, r0
     f92:	460b      	mov	r3, r1
     f94:	4613      	mov	r3, r2
     f96:	617b      	str	r3, [r7, #20]
     f98:	68f8      	ldr	r0, [r7, #12]
     f9a:	68b9      	ldr	r1, [r7, #8]
     f9c:	697a      	ldr	r2, [r7, #20]
     f9e:	f04f 0300 	mov.w	r3, #0
     fa2:	f005 ff33 	bl	6e0c <xQueueGenericReceive>
     fa6:	4603      	mov	r3, r0
     fa8:	2b01      	cmp	r3, #1
     faa:	d002      	beq.n	fb2 <os_mq_timedreceive+0x62>
     fac:	f04f 0301 	mov.w	r3, #1
     fb0:	e001      	b.n	fb6 <os_mq_timedreceive+0x66>
     fb2:	f04f 0300 	mov.w	r3, #0
     fb6:	4618      	mov	r0, r3
     fb8:	f107 0718 	add.w	r7, r7, #24
     fbc:	46bd      	mov	sp, r7
     fbe:	bd80      	pop	{r7, pc}
     fc0:	3b9aca00 	.word	0x3b9aca00
     fc4:	00000000 	.word	0x00000000

00000fc8 <os_mq_send_from_isr>:
     fc8:	b580      	push	{r7, lr}
     fca:	b084      	sub	sp, #16
     fcc:	af00      	add	r7, sp, #0
     fce:	6078      	str	r0, [r7, #4]
     fd0:	6039      	str	r1, [r7, #0]
     fd2:	6878      	ldr	r0, [r7, #4]
     fd4:	6839      	ldr	r1, [r7, #0]
     fd6:	f107 030c 	add.w	r3, r7, #12
     fda:	461a      	mov	r2, r3
     fdc:	f04f 0300 	mov.w	r3, #0
     fe0:	f005 fece 	bl	6d80 <xQueueGenericSendFromISR>
     fe4:	4603      	mov	r3, r0
     fe6:	2b01      	cmp	r3, #1
     fe8:	d002      	beq.n	ff0 <os_mq_send_from_isr+0x28>
     fea:	f04f 0303 	mov.w	r3, #3
     fee:	e001      	b.n	ff4 <os_mq_send_from_isr+0x2c>
     ff0:	f04f 0300 	mov.w	r3, #0
     ff4:	4618      	mov	r0, r3
     ff6:	f107 0710 	add.w	r7, r7, #16
     ffa:	46bd      	mov	sp, r7
     ffc:	bd80      	pop	{r7, pc}
     ffe:	bf00      	nop

00001000 <os_mq_receive_from_isr>:
    1000:	b580      	push	{r7, lr}
    1002:	b084      	sub	sp, #16
    1004:	af00      	add	r7, sp, #0
    1006:	6078      	str	r0, [r7, #4]
    1008:	6039      	str	r1, [r7, #0]
    100a:	6878      	ldr	r0, [r7, #4]
    100c:	6839      	ldr	r1, [r7, #0]
    100e:	f107 030c 	add.w	r3, r7, #12
    1012:	461a      	mov	r2, r3
    1014:	f005 ffbe 	bl	6f94 <xQueueReceiveFromISR>
    1018:	4603      	mov	r3, r0
    101a:	2b01      	cmp	r3, #1
    101c:	d002      	beq.n	1024 <os_mq_receive_from_isr+0x24>
    101e:	f04f 0302 	mov.w	r3, #2
    1022:	e001      	b.n	1028 <os_mq_receive_from_isr+0x28>
    1024:	f04f 0300 	mov.w	r3, #0
    1028:	4618      	mov	r0, r3
    102a:	f107 0710 	add.w	r7, r7, #16
    102e:	46bd      	mov	sp, r7
    1030:	bd80      	pop	{r7, pc}
    1032:	bf00      	nop

00001034 <os_mq_num_pending_from_isr>:
    1034:	b580      	push	{r7, lr}
    1036:	b082      	sub	sp, #8
    1038:	af00      	add	r7, sp, #0
    103a:	6078      	str	r0, [r7, #4]
    103c:	6878      	ldr	r0, [r7, #4]
    103e:	f006 f803 	bl	7048 <uxQueueMessagesWaitingFromISR>
    1042:	4603      	mov	r3, r0
    1044:	4618      	mov	r0, r3
    1046:	f107 0708 	add.w	r7, r7, #8
    104a:	46bd      	mov	sp, r7
    104c:	bd80      	pop	{r7, pc}
    104e:	bf00      	nop

00001050 <stellaris_cdc_init>:
    1050:	b580      	push	{r7, lr}
    1052:	b084      	sub	sp, #16
    1054:	af00      	add	r7, sp, #0
    1056:	6078      	str	r0, [r7, #4]
    1058:	687b      	ldr	r3, [r7, #4]
    105a:	68db      	ldr	r3, [r3, #12]
    105c:	60fb      	str	r3, [r7, #12]
    105e:	68fb      	ldr	r3, [r7, #12]
    1060:	f641 42be 	movw	r2, #7358	; 0x1cbe
    1064:	871a      	strh	r2, [r3, #56]	; 0x38
    1066:	68fb      	ldr	r3, [r7, #12]
    1068:	f04f 0202 	mov.w	r2, #2
    106c:	875a      	strh	r2, [r3, #58]	; 0x3a
    106e:	68fb      	ldr	r3, [r7, #12]
    1070:	f04f 0200 	mov.w	r2, #0
    1074:	879a      	strh	r2, [r3, #60]	; 0x3c
    1076:	68fb      	ldr	r3, [r7, #12]
    1078:	f04f 02c0 	mov.w	r2, #192	; 0xc0
    107c:	f883 203e 	strb.w	r2, [r3, #62]	; 0x3e
    1080:	68fa      	ldr	r2, [r7, #12]
    1082:	f241 2369 	movw	r3, #4713	; 0x1269
    1086:	f2c0 0300 	movt	r3, #0
    108a:	6413      	str	r3, [r2, #64]	; 0x40
    108c:	68fb      	ldr	r3, [r7, #12]
    108e:	687a      	ldr	r2, [r7, #4]
    1090:	645a      	str	r2, [r3, #68]	; 0x44
    1092:	68fa      	ldr	r2, [r7, #12]
    1094:	f241 3309 	movw	r3, #4873	; 0x1309
    1098:	f2c0 0300 	movt	r3, #0
    109c:	6493      	str	r3, [r2, #72]	; 0x48
    109e:	68fb      	ldr	r3, [r7, #12]
    10a0:	687a      	ldr	r2, [r7, #4]
    10a2:	64da      	str	r2, [r3, #76]	; 0x4c
    10a4:	68fa      	ldr	r2, [r7, #12]
    10a6:	f241 33fd 	movw	r3, #5117	; 0x13fd
    10aa:	f2c0 0300 	movt	r3, #0
    10ae:	6513      	str	r3, [r2, #80]	; 0x50
    10b0:	68fb      	ldr	r3, [r7, #12]
    10b2:	687a      	ldr	r2, [r7, #4]
    10b4:	655a      	str	r2, [r3, #84]	; 0x54
    10b6:	68fa      	ldr	r2, [r7, #12]
    10b8:	f647 4338 	movw	r3, #31800	; 0x7c38
    10bc:	f2c0 0301 	movt	r3, #1
    10c0:	6593      	str	r3, [r2, #88]	; 0x58
    10c2:	68fb      	ldr	r3, [r7, #12]
    10c4:	f04f 0206 	mov.w	r2, #6
    10c8:	65da      	str	r2, [r3, #92]	; 0x5c
    10ca:	68fb      	ldr	r3, [r7, #12]
    10cc:	f103 0264 	add.w	r2, r3, #100	; 0x64
    10d0:	68fb      	ldr	r3, [r7, #12]
    10d2:	661a      	str	r2, [r3, #96]	; 0x60
    10d4:	68fb      	ldr	r3, [r7, #12]
    10d6:	f04f 0200 	mov.w	r2, #0
    10da:	f883 2110 	strb.w	r2, [r3, #272]	; 0x110
    10de:	68fb      	ldr	r3, [r7, #12]
    10e0:	f04f 0200 	mov.w	r2, #0
    10e4:	f883 2111 	strb.w	r2, [r3, #273]	; 0x111
    10e8:	68fa      	ldr	r2, [r7, #12]
    10ea:	f241 1341 	movw	r3, #4417	; 0x1141
    10ee:	f2c0 0300 	movt	r3, #0
    10f2:	6013      	str	r3, [r2, #0]
    10f4:	68fa      	ldr	r2, [r7, #12]
    10f6:	f241 1365 	movw	r3, #4453	; 0x1165
    10fa:	f2c0 0300 	movt	r3, #0
    10fe:	6053      	str	r3, [r2, #4]
    1100:	68fa      	ldr	r2, [r7, #12]
    1102:	f241 1389 	movw	r3, #4489	; 0x1189
    1106:	f2c0 0300 	movt	r3, #0
    110a:	6093      	str	r3, [r2, #8]
    110c:	6878      	ldr	r0, [r7, #4]
    110e:	f008 fd4b 	bl	9ba8 <serial_init>
    1112:	60b8      	str	r0, [r7, #8]
    1114:	f04f 0000 	mov.w	r0, #0
    1118:	f04f 0100 	mov.w	r1, #0
    111c:	f04f 0200 	mov.w	r2, #0
    1120:	f009 ffe6 	bl	b0f0 <USBStackModeSet>
    1124:	68fb      	ldr	r3, [r7, #12]
    1126:	f103 0338 	add.w	r3, r3, #56	; 0x38
    112a:	f04f 0000 	mov.w	r0, #0
    112e:	4619      	mov	r1, r3
    1130:	f009 f990 	bl	a454 <USBDCDCInit>
    1134:	68bb      	ldr	r3, [r7, #8]
    1136:	4618      	mov	r0, r3
    1138:	f107 0710 	add.w	r7, r7, #16
    113c:	46bd      	mov	sp, r7
    113e:	bd80      	pop	{r7, pc}

00001140 <stellaris_cdc_enable>:
    1140:	b480      	push	{r7}
    1142:	b085      	sub	sp, #20
    1144:	af00      	add	r7, sp, #0
    1146:	6078      	str	r0, [r7, #4]
    1148:	687b      	ldr	r3, [r7, #4]
    114a:	68db      	ldr	r3, [r3, #12]
    114c:	60fb      	str	r3, [r7, #12]
    114e:	68fb      	ldr	r3, [r7, #12]
    1150:	f04f 0201 	mov.w	r2, #1
    1154:	f883 2111 	strb.w	r2, [r3, #273]	; 0x111
    1158:	f107 0714 	add.w	r7, r7, #20
    115c:	46bd      	mov	sp, r7
    115e:	bc80      	pop	{r7}
    1160:	4770      	bx	lr
    1162:	bf00      	nop

00001164 <stellaris_cdc_disable>:
    1164:	b480      	push	{r7}
    1166:	b085      	sub	sp, #20
    1168:	af00      	add	r7, sp, #0
    116a:	6078      	str	r0, [r7, #4]
    116c:	687b      	ldr	r3, [r7, #4]
    116e:	68db      	ldr	r3, [r3, #12]
    1170:	60fb      	str	r3, [r7, #12]
    1172:	68fb      	ldr	r3, [r7, #12]
    1174:	f04f 0200 	mov.w	r2, #0
    1178:	f883 2111 	strb.w	r2, [r3, #273]	; 0x111
    117c:	f107 0714 	add.w	r7, r7, #20
    1180:	46bd      	mov	sp, r7
    1182:	bc80      	pop	{r7}
    1184:	4770      	bx	lr
    1186:	bf00      	nop

00001188 <stellaris_cdc_tx_char>:
    1188:	b580      	push	{r7, lr}
    118a:	b088      	sub	sp, #32
    118c:	af00      	add	r7, sp, #0
    118e:	6078      	str	r0, [r7, #4]
    1190:	687b      	ldr	r3, [r7, #4]
    1192:	68db      	ldr	r3, [r3, #12]
    1194:	61bb      	str	r3, [r7, #24]
    1196:	f04f 003c 	mov.w	r0, #60	; 0x3c
    119a:	f00d fbcb 	bl	e934 <IntDisable>
    119e:	69bb      	ldr	r3, [r7, #24]
    11a0:	f893 3110 	ldrb.w	r3, [r3, #272]	; 0x110
    11a4:	2b00      	cmp	r3, #0
    11a6:	d046      	beq.n	1236 <stellaris_cdc_tx_char+0xae>
    11a8:	69bb      	ldr	r3, [r7, #24]
    11aa:	f103 0338 	add.w	r3, r3, #56	; 0x38
    11ae:	4618      	mov	r0, r3
    11b0:	f04f 0103 	mov.w	r1, #3
    11b4:	f009 fa0c 	bl	a5d0 <USBDCDCSerialStateChange>
    11b8:	69bb      	ldr	r3, [r7, #24]
    11ba:	f103 0338 	add.w	r3, r3, #56	; 0x38
    11be:	4618      	mov	r0, r3
    11c0:	f009 f9e6 	bl	a590 <USBDCDCTxPacketAvailable>
    11c4:	6178      	str	r0, [r7, #20]
    11c6:	f04f 0300 	mov.w	r3, #0
    11ca:	61fb      	str	r3, [r7, #28]
    11cc:	e015      	b.n	11fa <stellaris_cdc_tx_char+0x72>
    11ce:	69bb      	ldr	r3, [r7, #24]
    11d0:	6ada      	ldr	r2, [r3, #44]	; 0x2c
    11d2:	69bb      	ldr	r3, [r7, #24]
    11d4:	f103 0190 	add.w	r1, r3, #144	; 0x90
    11d8:	69fb      	ldr	r3, [r7, #28]
    11da:	18cb      	adds	r3, r1, r3
    11dc:	4610      	mov	r0, r2
    11de:	4619      	mov	r1, r3
    11e0:	f04f 0200 	mov.w	r2, #0
    11e4:	f04f 0300 	mov.w	r3, #0
    11e8:	f7ff feb2 	bl	f50 <os_mq_timedreceive>
    11ec:	4603      	mov	r3, r0
    11ee:	2b00      	cmp	r3, #0
    11f0:	d10b      	bne.n	120a <stellaris_cdc_tx_char+0x82>
    11f2:	69fb      	ldr	r3, [r7, #28]
    11f4:	f103 0301 	add.w	r3, r3, #1
    11f8:	61fb      	str	r3, [r7, #28]
    11fa:	69fb      	ldr	r3, [r7, #28]
    11fc:	2b3f      	cmp	r3, #63	; 0x3f
    11fe:	d805      	bhi.n	120c <stellaris_cdc_tx_char+0x84>
    1200:	69fa      	ldr	r2, [r7, #28]
    1202:	697b      	ldr	r3, [r7, #20]
    1204:	429a      	cmp	r2, r3
    1206:	d3e2      	bcc.n	11ce <stellaris_cdc_tx_char+0x46>
    1208:	e000      	b.n	120c <stellaris_cdc_tx_char+0x84>
    120a:	bf00      	nop
    120c:	69fb      	ldr	r3, [r7, #28]
    120e:	2b00      	cmp	r3, #0
    1210:	d00c      	beq.n	122c <stellaris_cdc_tx_char+0xa4>
    1212:	69bb      	ldr	r3, [r7, #24]
    1214:	f103 0238 	add.w	r2, r3, #56	; 0x38
    1218:	69bb      	ldr	r3, [r7, #24]
    121a:	f103 0390 	add.w	r3, r3, #144	; 0x90
    121e:	4610      	mov	r0, r2
    1220:	4619      	mov	r1, r3
    1222:	69fa      	ldr	r2, [r7, #28]
    1224:	f04f 0301 	mov.w	r3, #1
    1228:	f009 f940 	bl	a4ac <USBDCDCPacketWrite>
    122c:	f04f 003c 	mov.w	r0, #60	; 0x3c
    1230:	f00d fb50 	bl	e8d4 <IntEnable>
    1234:	e013      	b.n	125e <stellaris_cdc_tx_char+0xd6>
    1236:	f04f 003c 	mov.w	r0, #60	; 0x3c
    123a:	f00d fb4b 	bl	e8d4 <IntEnable>
    123e:	69bb      	ldr	r3, [r7, #24]
    1240:	6adb      	ldr	r3, [r3, #44]	; 0x2c
    1242:	4618      	mov	r0, r3
    1244:	f107 030f 	add.w	r3, r7, #15
    1248:	4619      	mov	r1, r3
    124a:	f04f 0200 	mov.w	r2, #0
    124e:	f04f 0300 	mov.w	r3, #0
    1252:	f7ff fe7d 	bl	f50 <os_mq_timedreceive>
    1256:	6138      	str	r0, [r7, #16]
    1258:	693b      	ldr	r3, [r7, #16]
    125a:	2b00      	cmp	r3, #0
    125c:	d0ef      	beq.n	123e <stellaris_cdc_tx_char+0xb6>
    125e:	f107 0720 	add.w	r7, r7, #32
    1262:	46bd      	mov	sp, r7
    1264:	bd80      	pop	{r7, pc}
    1266:	bf00      	nop

00001268 <control_callback>:
    1268:	b480      	push	{r7}
    126a:	b087      	sub	sp, #28
    126c:	af00      	add	r7, sp, #0
    126e:	60f8      	str	r0, [r7, #12]
    1270:	60b9      	str	r1, [r7, #8]
    1272:	607a      	str	r2, [r7, #4]
    1274:	603b      	str	r3, [r7, #0]
    1276:	68fb      	ldr	r3, [r7, #12]
    1278:	617b      	str	r3, [r7, #20]
    127a:	697b      	ldr	r3, [r7, #20]
    127c:	68db      	ldr	r3, [r3, #12]
    127e:	613b      	str	r3, [r7, #16]
    1280:	68bb      	ldr	r3, [r7, #8]
    1282:	f5b3 4f00 	cmp.w	r3, #32768	; 0x8000
    1286:	d029      	beq.n	12dc <control_callback+0x74>
    1288:	f5b3 4f00 	cmp.w	r3, #32768	; 0x8000
    128c:	d808      	bhi.n	12a0 <control_callback+0x38>
    128e:	2b01      	cmp	r3, #1
    1290:	d01d      	beq.n	12ce <control_callback+0x66>
    1292:	2b01      	cmp	r3, #1
    1294:	d315      	bcc.n	12c2 <control_callback+0x5a>
    1296:	2b07      	cmp	r3, #7
    1298:	d022      	beq.n	12e0 <control_callback+0x78>
    129a:	2b08      	cmp	r3, #8
    129c:	d022      	beq.n	12e4 <control_callback+0x7c>
    129e:	e01c      	b.n	12da <control_callback+0x72>
    12a0:	f248 0202 	movw	r2, #32770	; 0x8002
    12a4:	4293      	cmp	r3, r2
    12a6:	d01f      	beq.n	12e8 <control_callback+0x80>
    12a8:	f248 0202 	movw	r2, #32770	; 0x8002
    12ac:	4293      	cmp	r3, r2
    12ae:	d31d      	bcc.n	12ec <control_callback+0x84>
    12b0:	f248 0203 	movw	r2, #32771	; 0x8003
    12b4:	4293      	cmp	r3, r2
    12b6:	d01b      	beq.n	12f0 <control_callback+0x88>
    12b8:	f248 0204 	movw	r2, #32772	; 0x8004
    12bc:	4293      	cmp	r3, r2
    12be:	d019      	beq.n	12f4 <control_callback+0x8c>
    12c0:	e00b      	b.n	12da <control_callback+0x72>
    12c2:	693b      	ldr	r3, [r7, #16]
    12c4:	f04f 0201 	mov.w	r2, #1
    12c8:	f883 2110 	strb.w	r2, [r3, #272]	; 0x110
    12cc:	e013      	b.n	12f6 <control_callback+0x8e>
    12ce:	693b      	ldr	r3, [r7, #16]
    12d0:	f04f 0200 	mov.w	r2, #0
    12d4:	f883 2110 	strb.w	r2, [r3, #272]	; 0x110
    12d8:	e00d      	b.n	12f6 <control_callback+0x8e>
    12da:	e00c      	b.n	12f6 <control_callback+0x8e>
    12dc:	bf00      	nop
    12de:	e00a      	b.n	12f6 <control_callback+0x8e>
    12e0:	bf00      	nop
    12e2:	e008      	b.n	12f6 <control_callback+0x8e>
    12e4:	bf00      	nop
    12e6:	e006      	b.n	12f6 <control_callback+0x8e>
    12e8:	bf00      	nop
    12ea:	e004      	b.n	12f6 <control_callback+0x8e>
    12ec:	bf00      	nop
    12ee:	e002      	b.n	12f6 <control_callback+0x8e>
    12f0:	bf00      	nop
    12f2:	e000      	b.n	12f6 <control_callback+0x8e>
    12f4:	bf00      	nop
    12f6:	f04f 0300 	mov.w	r3, #0
    12fa:	4618      	mov	r0, r3
    12fc:	f107 071c 	add.w	r7, r7, #28
    1300:	46bd      	mov	sp, r7
    1302:	bc80      	pop	{r7}
    1304:	4770      	bx	lr
    1306:	bf00      	nop

00001308 <rx_callback>:
    1308:	b590      	push	{r4, r7, lr}
    130a:	b08d      	sub	sp, #52	; 0x34
    130c:	af00      	add	r7, sp, #0
    130e:	60f8      	str	r0, [r7, #12]
    1310:	60b9      	str	r1, [r7, #8]
    1312:	607a      	str	r2, [r7, #4]
    1314:	603b      	str	r3, [r7, #0]
    1316:	68fb      	ldr	r3, [r7, #12]
    1318:	623b      	str	r3, [r7, #32]
    131a:	6a3b      	ldr	r3, [r7, #32]
    131c:	68db      	ldr	r3, [r3, #12]
    131e:	61fb      	str	r3, [r7, #28]
    1320:	68bb      	ldr	r3, [r7, #8]
    1322:	2b03      	cmp	r3, #3
    1324:	d062      	beq.n	13ec <rx_callback+0xe4>
    1326:	2b06      	cmp	r3, #6
    1328:	d060      	beq.n	13ec <rx_callback+0xe4>
    132a:	2b02      	cmp	r3, #2
    132c:	d000      	beq.n	1330 <rx_callback+0x28>
    132e:	e05e      	b.n	13ee <rx_callback+0xe6>
    1330:	683b      	ldr	r3, [r7, #0]
    1332:	2b00      	cmp	r3, #0
    1334:	d023      	beq.n	137e <rx_callback+0x76>
    1336:	683b      	ldr	r3, [r7, #0]
    1338:	62fb      	str	r3, [r7, #44]	; 0x2c
    133a:	69fb      	ldr	r3, [r7, #28]
    133c:	f893 3111 	ldrb.w	r3, [r3, #273]	; 0x111
    1340:	2b00      	cmp	r3, #0
    1342:	d01a      	beq.n	137a <rx_callback+0x72>
    1344:	f04f 0300 	mov.w	r3, #0
    1348:	62bb      	str	r3, [r7, #40]	; 0x28
    134a:	e010      	b.n	136e <rx_callback+0x66>
    134c:	69fb      	ldr	r3, [r7, #28]
    134e:	6b1b      	ldr	r3, [r3, #48]	; 0x30
    1350:	4618      	mov	r0, r3
    1352:	6af9      	ldr	r1, [r7, #44]	; 0x2c
    1354:	f7ff fe38 	bl	fc8 <os_mq_send_from_isr>
    1358:	4603      	mov	r3, r0
    135a:	2b00      	cmp	r3, #0
    135c:	d10c      	bne.n	1378 <rx_callback+0x70>
    135e:	6abb      	ldr	r3, [r7, #40]	; 0x28
    1360:	f103 0301 	add.w	r3, r3, #1
    1364:	62bb      	str	r3, [r7, #40]	; 0x28
    1366:	6afb      	ldr	r3, [r7, #44]	; 0x2c
    1368:	f103 0301 	add.w	r3, r3, #1
    136c:	62fb      	str	r3, [r7, #44]	; 0x2c
    136e:	6aba      	ldr	r2, [r7, #40]	; 0x28
    1370:	687b      	ldr	r3, [r7, #4]
    1372:	429a      	cmp	r2, r3
    1374:	d3ea      	bcc.n	134c <rx_callback+0x44>
    1376:	e000      	b.n	137a <rx_callback+0x72>
    1378:	bf00      	nop
    137a:	6abb      	ldr	r3, [r7, #40]	; 0x28
    137c:	e039      	b.n	13f2 <rx_callback+0xea>
    137e:	f647 23dc 	movw	r3, #31452	; 0x7adc
    1382:	f2c0 0301 	movt	r3, #1
    1386:	681c      	ldr	r4, [r3, #0]
    1388:	69fb      	ldr	r3, [r7, #28]
    138a:	6b1b      	ldr	r3, [r3, #48]	; 0x30
    138c:	4618      	mov	r0, r3
    138e:	f7ff fe51 	bl	1034 <os_mq_num_pending_from_isr>
    1392:	4603      	mov	r3, r0
    1394:	1ae3      	subs	r3, r4, r3
    1396:	61bb      	str	r3, [r7, #24]
    1398:	69fb      	ldr	r3, [r7, #28]
    139a:	f103 0238 	add.w	r2, r3, #56	; 0x38
    139e:	69fb      	ldr	r3, [r7, #28]
    13a0:	f103 03d0 	add.w	r3, r3, #208	; 0xd0
    13a4:	4610      	mov	r0, r2
    13a6:	4619      	mov	r1, r3
    13a8:	69ba      	ldr	r2, [r7, #24]
    13aa:	f04f 0301 	mov.w	r3, #1
    13ae:	f009 f8a6 	bl	a4fe <USBDCDCPacketRead>
    13b2:	6178      	str	r0, [r7, #20]
    13b4:	69fb      	ldr	r3, [r7, #28]
    13b6:	f893 3111 	ldrb.w	r3, [r3, #273]	; 0x111
    13ba:	2b00      	cmp	r3, #0
    13bc:	d013      	beq.n	13e6 <rx_callback+0xde>
    13be:	e00e      	b.n	13de <rx_callback+0xd6>
    13c0:	69fb      	ldr	r3, [r7, #28]
    13c2:	6b1a      	ldr	r2, [r3, #48]	; 0x30
    13c4:	69fb      	ldr	r3, [r7, #28]
    13c6:	f103 01d0 	add.w	r1, r3, #208	; 0xd0
    13ca:	6a7b      	ldr	r3, [r7, #36]	; 0x24
    13cc:	18cb      	adds	r3, r1, r3
    13ce:	4610      	mov	r0, r2
    13d0:	4619      	mov	r1, r3
    13d2:	f7ff fdf9 	bl	fc8 <os_mq_send_from_isr>
    13d6:	6a7b      	ldr	r3, [r7, #36]	; 0x24
    13d8:	f103 0301 	add.w	r3, r3, #1
    13dc:	627b      	str	r3, [r7, #36]	; 0x24
    13de:	6a7a      	ldr	r2, [r7, #36]	; 0x24
    13e0:	697b      	ldr	r3, [r7, #20]
    13e2:	429a      	cmp	r2, r3
    13e4:	d3ec      	bcc.n	13c0 <rx_callback+0xb8>
    13e6:	f04f 0300 	mov.w	r3, #0
    13ea:	e002      	b.n	13f2 <rx_callback+0xea>
    13ec:	bf00      	nop
    13ee:	f04f 0300 	mov.w	r3, #0
    13f2:	4618      	mov	r0, r3
    13f4:	f107 0734 	add.w	r7, r7, #52	; 0x34
    13f8:	46bd      	mov	sp, r7
    13fa:	bd90      	pop	{r4, r7, pc}

000013fc <tx_callback>:
    13fc:	b580      	push	{r7, lr}
    13fe:	b088      	sub	sp, #32
    1400:	af00      	add	r7, sp, #0
    1402:	60f8      	str	r0, [r7, #12]
    1404:	60b9      	str	r1, [r7, #8]
    1406:	607a      	str	r2, [r7, #4]
    1408:	603b      	str	r3, [r7, #0]
    140a:	68fb      	ldr	r3, [r7, #12]
    140c:	61bb      	str	r3, [r7, #24]
    140e:	69bb      	ldr	r3, [r7, #24]
    1410:	68db      	ldr	r3, [r3, #12]
    1412:	617b      	str	r3, [r7, #20]
    1414:	68bb      	ldr	r3, [r7, #8]
    1416:	2b05      	cmp	r3, #5
    1418:	d000      	beq.n	141c <tx_callback+0x20>
    141a:	e036      	b.n	148a <tx_callback+0x8e>
    141c:	697b      	ldr	r3, [r7, #20]
    141e:	f103 0338 	add.w	r3, r3, #56	; 0x38
    1422:	4618      	mov	r0, r3
    1424:	f009 f8b4 	bl	a590 <USBDCDCTxPacketAvailable>
    1428:	6138      	str	r0, [r7, #16]
    142a:	f04f 0300 	mov.w	r3, #0
    142e:	61fb      	str	r3, [r7, #28]
    1430:	e011      	b.n	1456 <tx_callback+0x5a>
    1432:	697b      	ldr	r3, [r7, #20]
    1434:	6ada      	ldr	r2, [r3, #44]	; 0x2c
    1436:	697b      	ldr	r3, [r7, #20]
    1438:	f103 0190 	add.w	r1, r3, #144	; 0x90
    143c:	69fb      	ldr	r3, [r7, #28]
    143e:	18cb      	adds	r3, r1, r3
    1440:	4610      	mov	r0, r2
    1442:	4619      	mov	r1, r3
    1444:	f7ff fddc 	bl	1000 <os_mq_receive_from_isr>
    1448:	4603      	mov	r3, r0
    144a:	2b00      	cmp	r3, #0
    144c:	d10b      	bne.n	1466 <tx_callback+0x6a>
    144e:	69fb      	ldr	r3, [r7, #28]
    1450:	f103 0301 	add.w	r3, r3, #1
    1454:	61fb      	str	r3, [r7, #28]
    1456:	69fb      	ldr	r3, [r7, #28]
    1458:	2b3f      	cmp	r3, #63	; 0x3f
    145a:	d805      	bhi.n	1468 <tx_callback+0x6c>
    145c:	69fa      	ldr	r2, [r7, #28]
    145e:	693b      	ldr	r3, [r7, #16]
    1460:	429a      	cmp	r2, r3
    1462:	d3e6      	bcc.n	1432 <tx_callback+0x36>
    1464:	e000      	b.n	1468 <tx_callback+0x6c>
    1466:	bf00      	nop
    1468:	69fb      	ldr	r3, [r7, #28]
    146a:	2b00      	cmp	r3, #0
    146c:	d00c      	beq.n	1488 <tx_callback+0x8c>
    146e:	697b      	ldr	r3, [r7, #20]
    1470:	f103 0238 	add.w	r2, r3, #56	; 0x38
    1474:	697b      	ldr	r3, [r7, #20]
    1476:	f103 0390 	add.w	r3, r3, #144	; 0x90
    147a:	4610      	mov	r0, r2
    147c:	4619      	mov	r1, r3
    147e:	69fa      	ldr	r2, [r7, #28]
    1480:	f04f 0301 	mov.w	r3, #1
    1484:	f009 f812 	bl	a4ac <USBDCDCPacketWrite>
    1488:	bf00      	nop
    148a:	f04f 0300 	mov.w	r3, #0
    148e:	4618      	mov	r0, r3
    1490:	f107 0720 	add.w	r7, r7, #32
    1494:	46bd      	mov	sp, r7
    1496:	bd80      	pop	{r7, pc}

00001498 <usb0_interrupt_handler>:
    1498:	b580      	push	{r7, lr}
    149a:	af00      	add	r7, sp, #0
    149c:	f009 fdd8 	bl	b050 <USB0DeviceIntHandler>
    14a0:	bd80      	pop	{r7, pc}
    14a2:	bf00      	nop
    14a4:	f3af 8000 	nop.w

000014a8 <__bswap_16>:
    14a8:	b480      	push	{r7}
    14aa:	b083      	sub	sp, #12
    14ac:	af00      	add	r7, sp, #0
    14ae:	4603      	mov	r3, r0
    14b0:	80fb      	strh	r3, [r7, #6]
    14b2:	88fb      	ldrh	r3, [r7, #6]
    14b4:	ea4f 2313 	mov.w	r3, r3, lsr #8
    14b8:	b29b      	uxth	r3, r3
    14ba:	b29a      	uxth	r2, r3
    14bc:	88fb      	ldrh	r3, [r7, #6]
    14be:	ea4f 2303 	mov.w	r3, r3, lsl #8
    14c2:	b29b      	uxth	r3, r3
    14c4:	4313      	orrs	r3, r2
    14c6:	b29b      	uxth	r3, r3
    14c8:	b29b      	uxth	r3, r3
    14ca:	4618      	mov	r0, r3
    14cc:	f107 070c 	add.w	r7, r7, #12
    14d0:	46bd      	mov	sp, r7
    14d2:	bc80      	pop	{r7}
    14d4:	4770      	bx	lr
    14d6:	bf00      	nop

000014d8 <os_mutex_init>:
    14d8:	b580      	push	{r7, lr}
    14da:	b082      	sub	sp, #8
    14dc:	af00      	add	r7, sp, #0
    14de:	6078      	str	r0, [r7, #4]
    14e0:	687b      	ldr	r3, [r7, #4]
    14e2:	f04f 0200 	mov.w	r2, #0
    14e6:	711a      	strb	r2, [r3, #4]
    14e8:	f04f 0001 	mov.w	r0, #1
    14ec:	f005 faf8 	bl	6ae0 <xQueueCreateMutex>
    14f0:	4602      	mov	r2, r0
    14f2:	687b      	ldr	r3, [r7, #4]
    14f4:	601a      	str	r2, [r3, #0]
    14f6:	f04f 0300 	mov.w	r3, #0
    14fa:	4618      	mov	r0, r3
    14fc:	f107 0708 	add.w	r7, r7, #8
    1500:	46bd      	mov	sp, r7
    1502:	bd80      	pop	{r7, pc}

00001504 <os_mutex_lock>:
    1504:	b580      	push	{r7, lr}
    1506:	b082      	sub	sp, #8
    1508:	af00      	add	r7, sp, #0
    150a:	6078      	str	r0, [r7, #4]
    150c:	f006 f8c0 	bl	7690 <vTaskSuspendAll>
    1510:	687b      	ldr	r3, [r7, #4]
    1512:	681b      	ldr	r3, [r3, #0]
    1514:	2b00      	cmp	r3, #0
    1516:	d112      	bne.n	153e <os_mutex_lock+0x3a>
    1518:	687b      	ldr	r3, [r7, #4]
    151a:	791b      	ldrb	r3, [r3, #4]
    151c:	2b00      	cmp	r3, #0
    151e:	d007      	beq.n	1530 <os_mutex_lock+0x2c>
    1520:	f04f 0004 	mov.w	r0, #4
    1524:	f005 fadc 	bl	6ae0 <xQueueCreateMutex>
    1528:	4602      	mov	r2, r0
    152a:	687b      	ldr	r3, [r7, #4]
    152c:	601a      	str	r2, [r3, #0]
    152e:	e006      	b.n	153e <os_mutex_lock+0x3a>
    1530:	f04f 0001 	mov.w	r0, #1
    1534:	f005 fad4 	bl	6ae0 <xQueueCreateMutex>
    1538:	4602      	mov	r2, r0
    153a:	687b      	ldr	r3, [r7, #4]
    153c:	601a      	str	r2, [r3, #0]
    153e:	f006 f8b9 	bl	76b4 <xTaskResumeAll>
    1542:	687b      	ldr	r3, [r7, #4]
    1544:	791b      	ldrb	r3, [r3, #4]
    1546:	2b00      	cmp	r3, #0
    1548:	d007      	beq.n	155a <os_mutex_lock+0x56>
    154a:	687b      	ldr	r3, [r7, #4]
    154c:	681b      	ldr	r3, [r3, #0]
    154e:	4618      	mov	r0, r3
    1550:	f04f 31ff 	mov.w	r1, #4294967295
    1554:	f005 fb3c 	bl	6bd0 <xQueueTakeMutexRecursive>
    1558:	e00a      	b.n	1570 <os_mutex_lock+0x6c>
    155a:	687b      	ldr	r3, [r7, #4]
    155c:	681b      	ldr	r3, [r3, #0]
    155e:	4618      	mov	r0, r3
    1560:	f04f 0100 	mov.w	r1, #0
    1564:	f04f 32ff 	mov.w	r2, #4294967295
    1568:	f04f 0300 	mov.w	r3, #0
    156c:	f005 fc4e 	bl	6e0c <xQueueGenericReceive>
    1570:	f04f 0300 	mov.w	r3, #0
    1574:	4618      	mov	r0, r3
    1576:	f107 0708 	add.w	r7, r7, #8
    157a:	46bd      	mov	sp, r7
    157c:	bd80      	pop	{r7, pc}
    157e:	bf00      	nop

00001580 <os_mutex_unlock>:
    1580:	b580      	push	{r7, lr}
    1582:	b082      	sub	sp, #8
    1584:	af00      	add	r7, sp, #0
    1586:	6078      	str	r0, [r7, #4]
    1588:	687b      	ldr	r3, [r7, #4]
    158a:	791b      	ldrb	r3, [r3, #4]
    158c:	2b00      	cmp	r3, #0
    158e:	d005      	beq.n	159c <os_mutex_unlock+0x1c>
    1590:	687b      	ldr	r3, [r7, #4]
    1592:	681b      	ldr	r3, [r3, #0]
    1594:	4618      	mov	r0, r3
    1596:	f005 faef 	bl	6b78 <xQueueGiveMutexRecursive>
    159a:	e00a      	b.n	15b2 <os_mutex_unlock+0x32>
    159c:	687b      	ldr	r3, [r7, #4]
    159e:	681b      	ldr	r3, [r3, #0]
    15a0:	4618      	mov	r0, r3
    15a2:	f04f 0100 	mov.w	r1, #0
    15a6:	f04f 0200 	mov.w	r2, #0
    15aa:	f04f 0300 	mov.w	r3, #0
    15ae:	f005 fb57 	bl	6c60 <xQueueGenericSend>
    15b2:	f04f 0300 	mov.w	r3, #0
    15b6:	4618      	mov	r0, r3
    15b8:	f107 0708 	add.w	r7, r7, #8
    15bc:	46bd      	mov	sp, r7
    15be:	bd80      	pop	{r7, pc}

000015c0 <claim_alias_timeout>:
    15c0:	b580      	push	{r7, lr}
    15c2:	b08c      	sub	sp, #48	; 0x30
    15c4:	af02      	add	r7, sp, #8
    15c6:	6078      	str	r0, [r7, #4]
    15c8:	6039      	str	r1, [r7, #0]
    15ca:	687b      	ldr	r3, [r7, #4]
    15cc:	627b      	str	r3, [r7, #36]	; 0x24
    15ce:	683b      	ldr	r3, [r7, #0]
    15d0:	623b      	str	r3, [r7, #32]
    15d2:	6a7b      	ldr	r3, [r7, #36]	; 0x24
    15d4:	f103 0324 	add.w	r3, r3, #36	; 0x24
    15d8:	4618      	mov	r0, r3
    15da:	f7ff ff93 	bl	1504 <os_mutex_lock>
    15de:	6a3b      	ldr	r3, [r7, #32]
    15e0:	7a1b      	ldrb	r3, [r3, #8]
    15e2:	2b00      	cmp	r3, #0
    15e4:	d012      	beq.n	160c <claim_alias_timeout+0x4c>
    15e6:	6a3b      	ldr	r3, [r7, #32]
    15e8:	f04f 0204 	mov.w	r2, #4
    15ec:	721a      	strb	r2, [r3, #8]
    15ee:	6a7b      	ldr	r3, [r7, #36]	; 0x24
    15f0:	699b      	ldr	r3, [r3, #24]
    15f2:	4618      	mov	r0, r3
    15f4:	f002 f91c 	bl	3830 <nmranet_alias_generate>
    15f8:	4603      	mov	r3, r0
    15fa:	9300      	str	r3, [sp, #0]
    15fc:	6a78      	ldr	r0, [r7, #36]	; 0x24
    15fe:	f04f 0200 	mov.w	r2, #0
    1602:	f04f 0300 	mov.w	r3, #0
    1606:	f000 f83d 	bl	1684 <claim_alias>
    160a:	e02b      	b.n	1664 <claim_alias_timeout+0xa4>
    160c:	6a3b      	ldr	r3, [r7, #32]
    160e:	f04f 0203 	mov.w	r2, #3
    1612:	721a      	strb	r2, [r3, #8]
    1614:	6a3b      	ldr	r3, [r7, #32]
    1616:	881b      	ldrh	r3, [r3, #0]
    1618:	f103 5382 	add.w	r3, r3, #272629760	; 0x10400000
    161c:	f503 1340 	add.w	r3, r3, #3145728	; 0x300000
    1620:	60fb      	str	r3, [r7, #12]
    1622:	7c3b      	ldrb	r3, [r7, #16]
    1624:	f36f 0303 	bfc	r3, #0, #4
    1628:	743b      	strb	r3, [r7, #16]
    162a:	7c3b      	ldrb	r3, [r7, #16]
    162c:	f043 0320 	orr.w	r3, r3, #32
    1630:	743b      	strb	r3, [r7, #16]
    1632:	7c3b      	ldrb	r3, [r7, #16]
    1634:	f36f 1304 	bfc	r3, #4, #1
    1638:	743b      	strb	r3, [r7, #16]
    163a:	7c3b      	ldrb	r3, [r7, #16]
    163c:	f36f 1386 	bfc	r3, #6, #1
    1640:	743b      	strb	r3, [r7, #16]
    1642:	6a7b      	ldr	r3, [r7, #36]	; 0x24
    1644:	6b1b      	ldr	r3, [r3, #48]	; 0x30
    1646:	6a7a      	ldr	r2, [r7, #36]	; 0x24
    1648:	68d2      	ldr	r2, [r2, #12]
    164a:	4610      	mov	r0, r2
    164c:	f107 020c 	add.w	r2, r7, #12
    1650:	4611      	mov	r1, r2
    1652:	f04f 0210 	mov.w	r2, #16
    1656:	4798      	blx	r3
    1658:	61f8      	str	r0, [r7, #28]
    165a:	69fb      	ldr	r3, [r7, #28]
    165c:	2b10      	cmp	r3, #16
    165e:	d001      	beq.n	1664 <claim_alias_timeout+0xa4>
    1660:	f001 fdc6 	bl	31f0 <abort>
    1664:	6a7b      	ldr	r3, [r7, #36]	; 0x24
    1666:	f103 0324 	add.w	r3, r3, #36	; 0x24
    166a:	4618      	mov	r0, r3
    166c:	f7ff ff88 	bl	1580 <os_mutex_unlock>
    1670:	f04f 0200 	mov.w	r2, #0
    1674:	f04f 0300 	mov.w	r3, #0
    1678:	4610      	mov	r0, r2
    167a:	4619      	mov	r1, r3
    167c:	f107 0728 	add.w	r7, r7, #40	; 0x28
    1680:	46bd      	mov	sp, r7
    1682:	bd80      	pop	{r7, pc}

00001684 <claim_alias>:
    1684:	e92d 43b0 	stmdb	sp!, {r4, r5, r7, r8, r9, lr}
    1688:	b096      	sub	sp, #88	; 0x58
    168a:	af00      	add	r7, sp, #0
    168c:	60f8      	str	r0, [r7, #12]
    168e:	e9c7 2300 	strd	r2, r3, [r7]
    1692:	f04f 0300 	mov.w	r3, #0
    1696:	657b      	str	r3, [r7, #84]	; 0x54
    1698:	e0f2      	b.n	1880 <claim_alias+0x1fc>
    169a:	68fb      	ldr	r3, [r7, #12]
    169c:	6a19      	ldr	r1, [r3, #32]
    169e:	6d7a      	ldr	r2, [r7, #84]	; 0x54
    16a0:	4613      	mov	r3, r2
    16a2:	ea4f 0343 	mov.w	r3, r3, lsl #1
    16a6:	189b      	adds	r3, r3, r2
    16a8:	ea4f 0383 	mov.w	r3, r3, lsl #2
    16ac:	18cb      	adds	r3, r1, r3
    16ae:	7a1b      	ldrb	r3, [r3, #8]
    16b0:	2b04      	cmp	r3, #4
    16b2:	f040 80e1 	bne.w	1878 <claim_alias+0x1f4>
    16b6:	68fb      	ldr	r3, [r7, #12]
    16b8:	6a19      	ldr	r1, [r3, #32]
    16ba:	6d7a      	ldr	r2, [r7, #84]	; 0x54
    16bc:	4613      	mov	r3, r2
    16be:	ea4f 0343 	mov.w	r3, r3, lsl #1
    16c2:	189b      	adds	r3, r3, r2
    16c4:	ea4f 0383 	mov.w	r3, r3, lsl #2
    16c8:	18cb      	adds	r3, r1, r3
    16ca:	f8b7 2070 	ldrh.w	r2, [r7, #112]	; 0x70
    16ce:	801a      	strh	r2, [r3, #0]
    16d0:	68fb      	ldr	r3, [r7, #12]
    16d2:	6a19      	ldr	r1, [r3, #32]
    16d4:	6d7a      	ldr	r2, [r7, #84]	; 0x54
    16d6:	4613      	mov	r3, r2
    16d8:	ea4f 0343 	mov.w	r3, r3, lsl #1
    16dc:	189b      	adds	r3, r3, r2
    16de:	ea4f 0383 	mov.w	r3, r3, lsl #2
    16e2:	18cb      	adds	r3, r1, r3
    16e4:	f04f 0200 	mov.w	r2, #0
    16e8:	721a      	strb	r2, [r3, #8]
    16ea:	e9d7 2300 	ldrd	r2, r3, [r7]
    16ee:	ea52 0103 	orrs.w	r1, r2, r3
    16f2:	d104      	bne.n	16fe <claim_alias+0x7a>
    16f4:	68fb      	ldr	r3, [r7, #12]
    16f6:	e9d3 2304 	ldrd	r2, r3, [r3, #16]
    16fa:	e9c7 2300 	strd	r2, r3, [r7]
    16fe:	f8b7 2070 	ldrh.w	r2, [r7, #112]	; 0x70
    1702:	687b      	ldr	r3, [r7, #4]
    1704:	ea4f 1813 	mov.w	r8, r3, lsr #4
    1708:	f04f 0900 	mov.w	r9, #0
    170c:	4643      	mov	r3, r8
    170e:	ea4f 5303 	mov.w	r3, r3, lsl #20
    1712:	ea4f 5313 	mov.w	r3, r3, lsr #20
    1716:	ea4f 3303 	mov.w	r3, r3, lsl #12
    171a:	18d3      	adds	r3, r2, r3
    171c:	f103 53b8 	add.w	r3, r3, #385875968	; 0x17000000
    1720:	613b      	str	r3, [r7, #16]
    1722:	7d3b      	ldrb	r3, [r7, #20]
    1724:	f36f 0303 	bfc	r3, #0, #4
    1728:	753b      	strb	r3, [r7, #20]
    172a:	f8b7 2070 	ldrh.w	r2, [r7, #112]	; 0x70
    172e:	687b      	ldr	r3, [r7, #4]
    1730:	ea4f 2303 	mov.w	r3, r3, lsl #8
    1734:	6839      	ldr	r1, [r7, #0]
    1736:	ea4f 6411 	mov.w	r4, r1, lsr #24
    173a:	431c      	orrs	r4, r3
    173c:	687b      	ldr	r3, [r7, #4]
    173e:	ea4f 6513 	mov.w	r5, r3, lsr #24
    1742:	4623      	mov	r3, r4
    1744:	ea4f 5303 	mov.w	r3, r3, lsl #20
    1748:	ea4f 5313 	mov.w	r3, r3, lsr #20
    174c:	ea4f 3303 	mov.w	r3, r3, lsl #12
    1750:	18d3      	adds	r3, r2, r3
    1752:	f103 53b0 	add.w	r3, r3, #369098752	; 0x16000000
    1756:	623b      	str	r3, [r7, #32]
    1758:	f897 3024 	ldrb.w	r3, [r7, #36]	; 0x24
    175c:	f36f 0303 	bfc	r3, #0, #4
    1760:	f887 3024 	strb.w	r3, [r7, #36]	; 0x24
    1764:	f8b7 2070 	ldrh.w	r2, [r7, #112]	; 0x70
    1768:	6839      	ldr	r1, [r7, #0]
    176a:	f44f 4370 	mov.w	r3, #61440	; 0xf000
    176e:	f2c0 03ff 	movt	r3, #255	; 0xff
    1772:	400b      	ands	r3, r1
    1774:	18d3      	adds	r3, r2, r3
    1776:	f103 53a8 	add.w	r3, r3, #352321536	; 0x15000000
    177a:	633b      	str	r3, [r7, #48]	; 0x30
    177c:	f897 3034 	ldrb.w	r3, [r7, #52]	; 0x34
    1780:	f36f 0303 	bfc	r3, #0, #4
    1784:	f887 3034 	strb.w	r3, [r7, #52]	; 0x34
    1788:	f8b7 2070 	ldrh.w	r2, [r7, #112]	; 0x70
    178c:	683b      	ldr	r3, [r7, #0]
    178e:	ea4f 5303 	mov.w	r3, r3, lsl #20
    1792:	ea4f 5313 	mov.w	r3, r3, lsr #20
    1796:	ea4f 3303 	mov.w	r3, r3, lsl #12
    179a:	18d3      	adds	r3, r2, r3
    179c:	f103 53a0 	add.w	r3, r3, #335544320	; 0x14000000
    17a0:	643b      	str	r3, [r7, #64]	; 0x40
    17a2:	f897 3044 	ldrb.w	r3, [r7, #68]	; 0x44
    17a6:	f36f 0303 	bfc	r3, #0, #4
    17aa:	f887 3044 	strb.w	r3, [r7, #68]	; 0x44
    17ae:	7d3b      	ldrb	r3, [r7, #20]
    17b0:	f043 0320 	orr.w	r3, r3, #32
    17b4:	753b      	strb	r3, [r7, #20]
    17b6:	f897 3024 	ldrb.w	r3, [r7, #36]	; 0x24
    17ba:	f043 0320 	orr.w	r3, r3, #32
    17be:	f887 3024 	strb.w	r3, [r7, #36]	; 0x24
    17c2:	f897 3034 	ldrb.w	r3, [r7, #52]	; 0x34
    17c6:	f043 0320 	orr.w	r3, r3, #32
    17ca:	f887 3034 	strb.w	r3, [r7, #52]	; 0x34
    17ce:	f897 3044 	ldrb.w	r3, [r7, #68]	; 0x44
    17d2:	f043 0320 	orr.w	r3, r3, #32
    17d6:	f887 3044 	strb.w	r3, [r7, #68]	; 0x44
    17da:	7d3b      	ldrb	r3, [r7, #20]
    17dc:	f36f 1304 	bfc	r3, #4, #1
    17e0:	753b      	strb	r3, [r7, #20]
    17e2:	f897 3024 	ldrb.w	r3, [r7, #36]	; 0x24
    17e6:	f36f 1304 	bfc	r3, #4, #1
    17ea:	f887 3024 	strb.w	r3, [r7, #36]	; 0x24
    17ee:	f897 3034 	ldrb.w	r3, [r7, #52]	; 0x34
    17f2:	f36f 1304 	bfc	r3, #4, #1
    17f6:	f887 3034 	strb.w	r3, [r7, #52]	; 0x34
    17fa:	f897 3044 	ldrb.w	r3, [r7, #68]	; 0x44
    17fe:	f36f 1304 	bfc	r3, #4, #1
    1802:	f887 3044 	strb.w	r3, [r7, #68]	; 0x44
    1806:	7d3b      	ldrb	r3, [r7, #20]
    1808:	f36f 1386 	bfc	r3, #6, #1
    180c:	753b      	strb	r3, [r7, #20]
    180e:	f897 3024 	ldrb.w	r3, [r7, #36]	; 0x24
    1812:	f36f 1386 	bfc	r3, #6, #1
    1816:	f887 3024 	strb.w	r3, [r7, #36]	; 0x24
    181a:	f897 3034 	ldrb.w	r3, [r7, #52]	; 0x34
    181e:	f36f 1386 	bfc	r3, #6, #1
    1822:	f887 3034 	strb.w	r3, [r7, #52]	; 0x34
    1826:	f897 3044 	ldrb.w	r3, [r7, #68]	; 0x44
    182a:	f36f 1386 	bfc	r3, #6, #1
    182e:	f887 3044 	strb.w	r3, [r7, #68]	; 0x44
    1832:	68fb      	ldr	r3, [r7, #12]
    1834:	6b1b      	ldr	r3, [r3, #48]	; 0x30
    1836:	68fa      	ldr	r2, [r7, #12]
    1838:	68d2      	ldr	r2, [r2, #12]
    183a:	4610      	mov	r0, r2
    183c:	f107 0210 	add.w	r2, r7, #16
    1840:	4611      	mov	r1, r2
    1842:	f04f 0240 	mov.w	r2, #64	; 0x40
    1846:	4798      	blx	r3
    1848:	6538      	str	r0, [r7, #80]	; 0x50
    184a:	6d3b      	ldr	r3, [r7, #80]	; 0x50
    184c:	2b40      	cmp	r3, #64	; 0x40
    184e:	d001      	beq.n	1854 <claim_alias+0x1d0>
    1850:	f001 fcce 	bl	31f0 <abort>
    1854:	68fb      	ldr	r3, [r7, #12]
    1856:	6a19      	ldr	r1, [r3, #32]
    1858:	6d7a      	ldr	r2, [r7, #84]	; 0x54
    185a:	4613      	mov	r3, r2
    185c:	ea4f 0343 	mov.w	r3, r3, lsl #1
    1860:	189b      	adds	r3, r3, r2
    1862:	ea4f 0383 	mov.w	r3, r3, lsl #2
    1866:	18cb      	adds	r3, r1, r3
    1868:	685b      	ldr	r3, [r3, #4]
    186a:	4618      	mov	r0, r3
    186c:	a30c      	add	r3, pc, #48	; (adr r3, 18a0 <claim_alias+0x21c>)
    186e:	e9d3 2300 	ldrd	r2, r3, [r3]
    1872:	f001 fab5 	bl	2de0 <os_timer_start>
    1876:	e00c      	b.n	1892 <claim_alias+0x20e>
    1878:	6d7b      	ldr	r3, [r7, #84]	; 0x54
    187a:	f103 0301 	add.w	r3, r3, #1
    187e:	657b      	str	r3, [r7, #84]	; 0x54
    1880:	f647 23c8 	movw	r3, #31432	; 0x7ac8
    1884:	f2c0 0301 	movt	r3, #1
    1888:	681b      	ldr	r3, [r3, #0]
    188a:	6d7a      	ldr	r2, [r7, #84]	; 0x54
    188c:	429a      	cmp	r2, r3
    188e:	f4ff af04 	bcc.w	169a <claim_alias+0x16>
    1892:	f107 0758 	add.w	r7, r7, #88	; 0x58
    1896:	46bd      	mov	sp, r7
    1898:	e8bd 83b0 	ldmia.w	sp!, {r4, r5, r7, r8, r9, pc}
    189c:	f3af 8000 	nop.w
    18a0:	0bebc200 	.word	0x0bebc200
    18a4:	00000000 	.word	0x00000000

000018a8 <downstream_alias_setup>:
    18a8:	b580      	push	{r7, lr}
    18aa:	b086      	sub	sp, #24
    18ac:	af02      	add	r7, sp, #8
    18ae:	60f8      	str	r0, [r7, #12]
    18b0:	e9c7 2300 	strd	r2, r3, [r7]
    18b4:	460b      	mov	r3, r1
    18b6:	817b      	strh	r3, [r7, #10]
    18b8:	68fb      	ldr	r3, [r7, #12]
    18ba:	f103 0324 	add.w	r3, r3, #36	; 0x24
    18be:	4618      	mov	r0, r3
    18c0:	f7ff fe20 	bl	1504 <os_mutex_lock>
    18c4:	68fb      	ldr	r3, [r7, #12]
    18c6:	699b      	ldr	r3, [r3, #24]
    18c8:	897a      	ldrh	r2, [r7, #10]
    18ca:	9200      	str	r2, [sp, #0]
    18cc:	4618      	mov	r0, r3
    18ce:	e9d7 2300 	ldrd	r2, r3, [r7]
    18d2:	f001 fe83 	bl	35dc <nmranet_alias_add>
    18d6:	68fb      	ldr	r3, [r7, #12]
    18d8:	f103 0324 	add.w	r3, r3, #36	; 0x24
    18dc:	4618      	mov	r0, r3
    18de:	f7ff fe4f 	bl	1580 <os_mutex_unlock>
    18e2:	f107 0710 	add.w	r7, r7, #16
    18e6:	46bd      	mov	sp, r7
    18e8:	bd80      	pop	{r7, pc}
    18ea:	bf00      	nop

000018ec <upstream_alias_setup>:
    18ec:	e92d 4fb0 	stmdb	sp!, {r4, r5, r7, r8, r9, sl, fp, lr}
    18f0:	b092      	sub	sp, #72	; 0x48
    18f2:	af02      	add	r7, sp, #8
    18f4:	61f8      	str	r0, [r7, #28]
    18f6:	e9c7 2304 	strd	r2, r3, [r7, #16]
    18fa:	69fb      	ldr	r3, [r7, #28]
    18fc:	f103 0324 	add.w	r3, r3, #36	; 0x24
    1900:	4618      	mov	r0, r3
    1902:	f7ff fdff 	bl	1504 <os_mutex_lock>
    1906:	f04f 0300 	mov.w	r3, #0
    190a:	63fb      	str	r3, [r7, #60]	; 0x3c
    190c:	e0c9      	b.n	1aa2 <upstream_alias_setup+0x1b6>
    190e:	69fb      	ldr	r3, [r7, #28]
    1910:	6a19      	ldr	r1, [r3, #32]
    1912:	6bfa      	ldr	r2, [r7, #60]	; 0x3c
    1914:	4613      	mov	r3, r2
    1916:	ea4f 0343 	mov.w	r3, r3, lsl #1
    191a:	189b      	adds	r3, r3, r2
    191c:	ea4f 0383 	mov.w	r3, r3, lsl #2
    1920:	18cb      	adds	r3, r1, r3
    1922:	7a1b      	ldrb	r3, [r3, #8]
    1924:	2b03      	cmp	r3, #3
    1926:	f040 80b8 	bne.w	1a9a <upstream_alias_setup+0x1ae>
    192a:	69fb      	ldr	r3, [r7, #28]
    192c:	6a19      	ldr	r1, [r3, #32]
    192e:	6bfa      	ldr	r2, [r7, #60]	; 0x3c
    1930:	4613      	mov	r3, r2
    1932:	ea4f 0343 	mov.w	r3, r3, lsl #1
    1936:	189b      	adds	r3, r3, r2
    1938:	ea4f 0383 	mov.w	r3, r3, lsl #2
    193c:	18cb      	adds	r3, r1, r3
    193e:	881b      	ldrh	r3, [r3, #0]
    1940:	877b      	strh	r3, [r7, #58]	; 0x3a
    1942:	8f7a      	ldrh	r2, [r7, #58]	; 0x3a
    1944:	f44f 5380 	mov.w	r3, #4096	; 0x1000
    1948:	f2c1 0370 	movt	r3, #4208	; 0x1070
    194c:	18d3      	adds	r3, r2, r3
    194e:	627b      	str	r3, [r7, #36]	; 0x24
    1950:	f897 3028 	ldrb.w	r3, [r7, #40]	; 0x28
    1954:	f36f 0303 	bfc	r3, #0, #4
    1958:	f887 3028 	strb.w	r3, [r7, #40]	; 0x28
    195c:	f897 3028 	ldrb.w	r3, [r7, #40]	; 0x28
    1960:	f043 0320 	orr.w	r3, r3, #32
    1964:	f887 3028 	strb.w	r3, [r7, #40]	; 0x28
    1968:	f897 3028 	ldrb.w	r3, [r7, #40]	; 0x28
    196c:	f36f 1304 	bfc	r3, #4, #1
    1970:	f887 3028 	strb.w	r3, [r7, #40]	; 0x28
    1974:	f897 3028 	ldrb.w	r3, [r7, #40]	; 0x28
    1978:	f36f 1386 	bfc	r3, #6, #1
    197c:	f887 3028 	strb.w	r3, [r7, #40]	; 0x28
    1980:	f897 3028 	ldrb.w	r3, [r7, #40]	; 0x28
    1984:	f04f 0206 	mov.w	r2, #6
    1988:	f362 0303 	bfi	r3, r2, #0, #4
    198c:	f887 3028 	strb.w	r3, [r7, #40]	; 0x28
    1990:	697b      	ldr	r3, [r7, #20]
    1992:	ea4f 2313 	mov.w	r3, r3, lsr #8
    1996:	60bb      	str	r3, [r7, #8]
    1998:	f04f 0200 	mov.w	r2, #0
    199c:	60fa      	str	r2, [r7, #12]
    199e:	7a3a      	ldrb	r2, [r7, #8]
    19a0:	b2d3      	uxtb	r3, r2
    19a2:	f887 3029 	strb.w	r3, [r7, #41]	; 0x29
    19a6:	697b      	ldr	r3, [r7, #20]
    19a8:	461b      	mov	r3, r3
    19aa:	603b      	str	r3, [r7, #0]
    19ac:	f04f 0300 	mov.w	r3, #0
    19b0:	607b      	str	r3, [r7, #4]
    19b2:	783a      	ldrb	r2, [r7, #0]
    19b4:	b2d3      	uxtb	r3, r2
    19b6:	f887 302a 	strb.w	r3, [r7, #42]	; 0x2a
    19ba:	697b      	ldr	r3, [r7, #20]
    19bc:	ea4f 2203 	mov.w	r2, r3, lsl #8
    19c0:	693b      	ldr	r3, [r7, #16]
    19c2:	ea4f 6a13 	mov.w	sl, r3, lsr #24
    19c6:	ea42 0a0a 	orr.w	sl, r2, sl
    19ca:	697b      	ldr	r3, [r7, #20]
    19cc:	ea4f 6b13 	mov.w	fp, r3, lsr #24
    19d0:	fa5f f38a 	uxtb.w	r3, sl
    19d4:	f887 302b 	strb.w	r3, [r7, #43]	; 0x2b
    19d8:	697b      	ldr	r3, [r7, #20]
    19da:	ea4f 4303 	mov.w	r3, r3, lsl #16
    19de:	693a      	ldr	r2, [r7, #16]
    19e0:	ea4f 4412 	mov.w	r4, r2, lsr #16
    19e4:	431c      	orrs	r4, r3
    19e6:	697b      	ldr	r3, [r7, #20]
    19e8:	ea4f 4513 	mov.w	r5, r3, lsr #16
    19ec:	b2e3      	uxtb	r3, r4
    19ee:	f887 302c 	strb.w	r3, [r7, #44]	; 0x2c
    19f2:	697b      	ldr	r3, [r7, #20]
    19f4:	ea4f 6303 	mov.w	r3, r3, lsl #24
    19f8:	693a      	ldr	r2, [r7, #16]
    19fa:	ea4f 2812 	mov.w	r8, r2, lsr #8
    19fe:	ea43 0808 	orr.w	r8, r3, r8
    1a02:	697b      	ldr	r3, [r7, #20]
    1a04:	ea4f 2913 	mov.w	r9, r3, lsr #8
    1a08:	fa5f f388 	uxtb.w	r3, r8
    1a0c:	f887 302d 	strb.w	r3, [r7, #45]	; 0x2d
    1a10:	7c3b      	ldrb	r3, [r7, #16]
    1a12:	f887 302e 	strb.w	r3, [r7, #46]	; 0x2e
    1a16:	69fb      	ldr	r3, [r7, #28]
    1a18:	6b1b      	ldr	r3, [r3, #48]	; 0x30
    1a1a:	69fa      	ldr	r2, [r7, #28]
    1a1c:	68d2      	ldr	r2, [r2, #12]
    1a1e:	4610      	mov	r0, r2
    1a20:	f107 0224 	add.w	r2, r7, #36	; 0x24
    1a24:	4611      	mov	r1, r2
    1a26:	f04f 0210 	mov.w	r2, #16
    1a2a:	4798      	blx	r3
    1a2c:	6378      	str	r0, [r7, #52]	; 0x34
    1a2e:	6b7b      	ldr	r3, [r7, #52]	; 0x34
    1a30:	2b10      	cmp	r3, #16
    1a32:	d001      	beq.n	1a38 <upstream_alias_setup+0x14c>
    1a34:	f001 fbdc 	bl	31f0 <abort>
    1a38:	69fb      	ldr	r3, [r7, #28]
    1a3a:	6a19      	ldr	r1, [r3, #32]
    1a3c:	6bfa      	ldr	r2, [r7, #60]	; 0x3c
    1a3e:	4613      	mov	r3, r2
    1a40:	ea4f 0343 	mov.w	r3, r3, lsl #1
    1a44:	189b      	adds	r3, r3, r2
    1a46:	ea4f 0383 	mov.w	r3, r3, lsl #2
    1a4a:	18cb      	adds	r3, r1, r3
    1a4c:	f04f 0204 	mov.w	r2, #4
    1a50:	721a      	strb	r2, [r3, #8]
    1a52:	69fb      	ldr	r3, [r7, #28]
    1a54:	699b      	ldr	r3, [r3, #24]
    1a56:	4618      	mov	r0, r3
    1a58:	f001 feea 	bl	3830 <nmranet_alias_generate>
    1a5c:	4603      	mov	r3, r0
    1a5e:	9300      	str	r3, [sp, #0]
    1a60:	69f8      	ldr	r0, [r7, #28]
    1a62:	f04f 0200 	mov.w	r2, #0
    1a66:	f04f 0300 	mov.w	r3, #0
    1a6a:	f7ff fe0b 	bl	1684 <claim_alias>
    1a6e:	69fb      	ldr	r3, [r7, #28]
    1a70:	69db      	ldr	r3, [r3, #28]
    1a72:	8f7a      	ldrh	r2, [r7, #58]	; 0x3a
    1a74:	9200      	str	r2, [sp, #0]
    1a76:	4618      	mov	r0, r3
    1a78:	e9d7 2304 	ldrd	r2, r3, [r7, #16]
    1a7c:	f001 fdae 	bl	35dc <nmranet_alias_add>
    1a80:	69fb      	ldr	r3, [r7, #28]
    1a82:	f103 0324 	add.w	r3, r3, #36	; 0x24
    1a86:	4618      	mov	r0, r3
    1a88:	f7ff fd7a 	bl	1580 <os_mutex_unlock>
    1a8c:	8f7b      	ldrh	r3, [r7, #58]	; 0x3a
    1a8e:	4618      	mov	r0, r3
    1a90:	f107 0740 	add.w	r7, r7, #64	; 0x40
    1a94:	46bd      	mov	sp, r7
    1a96:	e8bd 8fb0 	ldmia.w	sp!, {r4, r5, r7, r8, r9, sl, fp, pc}
    1a9a:	6bfb      	ldr	r3, [r7, #60]	; 0x3c
    1a9c:	f103 0301 	add.w	r3, r3, #1
    1aa0:	63fb      	str	r3, [r7, #60]	; 0x3c
    1aa2:	f647 23c8 	movw	r3, #31432	; 0x7ac8
    1aa6:	f2c0 0301 	movt	r3, #1
    1aaa:	681b      	ldr	r3, [r3, #0]
    1aac:	6bfa      	ldr	r2, [r7, #60]	; 0x3c
    1aae:	429a      	cmp	r2, r3
    1ab0:	f4ff af2d 	bcc.w	190e <upstream_alias_setup+0x22>
    1ab4:	69fb      	ldr	r3, [r7, #28]
    1ab6:	f103 0324 	add.w	r3, r3, #36	; 0x24
    1aba:	4618      	mov	r0, r3
    1abc:	f7ff fd60 	bl	1580 <os_mutex_unlock>
    1ac0:	f04f 0001 	mov.w	r0, #1
    1ac4:	f001 fb80 	bl	31c8 <sleep>
    1ac8:	69fb      	ldr	r3, [r7, #28]
    1aca:	f103 0324 	add.w	r3, r3, #36	; 0x24
    1ace:	4618      	mov	r0, r3
    1ad0:	f7ff fd18 	bl	1504 <os_mutex_lock>
    1ad4:	e717      	b.n	1906 <upstream_alias_setup+0x1a>
    1ad6:	bf00      	nop

00001ad8 <nmranet_mti>:
    1ad8:	b480      	push	{r7}
    1ada:	b083      	sub	sp, #12
    1adc:	af00      	add	r7, sp, #0
    1ade:	6078      	str	r0, [r7, #4]
    1ae0:	687b      	ldr	r3, [r7, #4]
    1ae2:	f003 63e0 	and.w	r3, r3, #117440512	; 0x7000000
    1ae6:	ea4f 6313 	mov.w	r3, r3, lsr #24
    1aea:	f1a3 0302 	sub.w	r3, r3, #2
    1aee:	2b03      	cmp	r3, #3
    1af0:	d909      	bls.n	1b06 <nmranet_mti+0x2e>
    1af2:	687a      	ldr	r2, [r7, #4]
    1af4:	f44f 4370 	mov.w	r3, #61440	; 0xf000
    1af8:	f2c0 03ff 	movt	r3, #255	; 0xff
    1afc:	4013      	ands	r3, r2
    1afe:	ea4f 3313 	mov.w	r3, r3, lsr #12
    1b02:	b29b      	uxth	r3, r3
    1b04:	e001      	b.n	1b0a <nmranet_mti+0x32>
    1b06:	f641 4348 	movw	r3, #7240	; 0x1c48
    1b0a:	4618      	mov	r0, r3
    1b0c:	f107 070c 	add.w	r7, r7, #12
    1b10:	46bd      	mov	sp, r7
    1b12:	bc80      	pop	{r7}
    1b14:	4770      	bx	lr
    1b16:	bf00      	nop

00001b18 <can_identifier>:
    1b18:	b480      	push	{r7}
    1b1a:	b083      	sub	sp, #12
    1b1c:	af00      	add	r7, sp, #0
    1b1e:	4602      	mov	r2, r0
    1b20:	460b      	mov	r3, r1
    1b22:	80fa      	strh	r2, [r7, #6]
    1b24:	80bb      	strh	r3, [r7, #4]
    1b26:	88ba      	ldrh	r2, [r7, #4]
    1b28:	88fb      	ldrh	r3, [r7, #6]
    1b2a:	ea4f 3103 	mov.w	r1, r3, lsl #12
    1b2e:	f44f 4370 	mov.w	r3, #61440	; 0xf000
    1b32:	f2c0 03ff 	movt	r3, #255	; 0xff
    1b36:	400b      	ands	r3, r1
    1b38:	18d3      	adds	r3, r2, r3
    1b3a:	f103 53c8 	add.w	r3, r3, #419430400	; 0x19000000
    1b3e:	4618      	mov	r0, r3
    1b40:	f107 070c 	add.w	r7, r7, #12
    1b44:	46bd      	mov	sp, r7
    1b46:	bc80      	pop	{r7}
    1b48:	4770      	bx	lr
    1b4a:	bf00      	nop

00001b4c <can_write>:
    1b4c:	b590      	push	{r4, r7, lr}
    1b4e:	b09b      	sub	sp, #108	; 0x6c
    1b50:	af00      	add	r7, sp, #0
    1b52:	60f8      	str	r0, [r7, #12]
    1b54:	e9c7 2300 	strd	r2, r3, [r7]
    1b58:	460b      	mov	r3, r1
    1b5a:	817b      	strh	r3, [r7, #10]
    1b5c:	68fb      	ldr	r3, [r7, #12]
    1b5e:	65bb      	str	r3, [r7, #88]	; 0x58
    1b60:	6dbb      	ldr	r3, [r7, #88]	; 0x58
    1b62:	69db      	ldr	r3, [r3, #28]
    1b64:	4618      	mov	r0, r3
    1b66:	e9d7 2300 	ldrd	r2, r3, [r7]
    1b6a:	f001 fde1 	bl	3730 <nmranet_alias_lookup>
    1b6e:	4603      	mov	r3, r0
    1b70:	f8a7 3066 	strh.w	r3, [r7, #102]	; 0x66
    1b74:	f8b7 3066 	ldrh.w	r3, [r7, #102]	; 0x66
    1b78:	2b00      	cmp	r3, #0
    1b7a:	d107      	bne.n	1b8c <can_write+0x40>
    1b7c:	6db8      	ldr	r0, [r7, #88]	; 0x58
    1b7e:	e9d7 2300 	ldrd	r2, r3, [r7]
    1b82:	f7ff feb3 	bl	18ec <upstream_alias_setup>
    1b86:	4603      	mov	r3, r0
    1b88:	f8a7 3066 	strh.w	r3, [r7, #102]	; 0x66
    1b8c:	f8b7 3080 	ldrh.w	r3, [r7, #128]	; 0x80
    1b90:	2b00      	cmp	r3, #0
    1b92:	d105      	bne.n	1ba0 <can_write+0x54>
    1b94:	e9d7 231e 	ldrd	r2, r3, [r7, #120]	; 0x78
    1b98:	ea52 0103 	orrs.w	r1, r2, r3
    1b9c:	f000 80e2 	beq.w	1d64 <can_write+0x218>
    1ba0:	f8b7 3080 	ldrh.w	r3, [r7, #128]	; 0x80
    1ba4:	2b00      	cmp	r3, #0
    1ba6:	d109      	bne.n	1bbc <can_write+0x70>
    1ba8:	6dbb      	ldr	r3, [r7, #88]	; 0x58
    1baa:	6999      	ldr	r1, [r3, #24]
    1bac:	e9d7 231e 	ldrd	r2, r3, [r7, #120]	; 0x78
    1bb0:	4608      	mov	r0, r1
    1bb2:	f001 fdbd 	bl	3730 <nmranet_alias_lookup>
    1bb6:	4603      	mov	r3, r0
    1bb8:	f8a7 3080 	strh.w	r3, [r7, #128]	; 0x80
    1bbc:	f8b7 3080 	ldrh.w	r3, [r7, #128]	; 0x80
    1bc0:	2b00      	cmp	r3, #0
    1bc2:	f000 8121 	beq.w	1e08 <can_write+0x2bc>
    1bc6:	897a      	ldrh	r2, [r7, #10]
    1bc8:	f640 2308 	movw	r3, #2568	; 0xa08
    1bcc:	429a      	cmp	r2, r3
    1bce:	d051      	beq.n	1c74 <can_write+0x128>
    1bd0:	f8d7 0088 	ldr.w	r0, [r7, #136]	; 0x88
    1bd4:	f002 f880 	bl	3cd8 <nmranet_buffer_size>
    1bd8:	4604      	mov	r4, r0
    1bda:	f8d7 0088 	ldr.w	r0, [r7, #136]	; 0x88
    1bde:	f002 f88b 	bl	3cf8 <nmranet_buffer_available>
    1be2:	4603      	mov	r3, r0
    1be4:	1ae3      	subs	r3, r4, r3
    1be6:	64fb      	str	r3, [r7, #76]	; 0x4c
    1be8:	6cfb      	ldr	r3, [r7, #76]	; 0x4c
    1bea:	2b08      	cmp	r3, #8
    1bec:	d901      	bls.n	1bf2 <can_write+0xa6>
    1bee:	f001 faff 	bl	31f0 <abort>
    1bf2:	897a      	ldrh	r2, [r7, #10]
    1bf4:	f8b7 3066 	ldrh.w	r3, [r7, #102]	; 0x66
    1bf8:	4610      	mov	r0, r2
    1bfa:	4619      	mov	r1, r3
    1bfc:	f7ff ff8c 	bl	1b18 <can_identifier>
    1c00:	4603      	mov	r3, r0
    1c02:	633b      	str	r3, [r7, #48]	; 0x30
    1c04:	f897 3034 	ldrb.w	r3, [r7, #52]	; 0x34
    1c08:	f043 0320 	orr.w	r3, r3, #32
    1c0c:	f887 3034 	strb.w	r3, [r7, #52]	; 0x34
    1c10:	f897 3034 	ldrb.w	r3, [r7, #52]	; 0x34
    1c14:	f36f 1304 	bfc	r3, #4, #1
    1c18:	f887 3034 	strb.w	r3, [r7, #52]	; 0x34
    1c1c:	f897 3034 	ldrb.w	r3, [r7, #52]	; 0x34
    1c20:	f36f 1386 	bfc	r3, #6, #1
    1c24:	f887 3034 	strb.w	r3, [r7, #52]	; 0x34
    1c28:	f107 0330 	add.w	r3, r7, #48	; 0x30
    1c2c:	f103 0305 	add.w	r3, r3, #5
    1c30:	4618      	mov	r0, r3
    1c32:	f8d7 1088 	ldr.w	r1, [r7, #136]	; 0x88
    1c36:	6cfa      	ldr	r2, [r7, #76]	; 0x4c
    1c38:	f00f fe12 	bl	11860 <memcpy>
    1c3c:	6cfb      	ldr	r3, [r7, #76]	; 0x4c
    1c3e:	b2db      	uxtb	r3, r3
    1c40:	f003 030f 	and.w	r3, r3, #15
    1c44:	b2da      	uxtb	r2, r3
    1c46:	f897 3034 	ldrb.w	r3, [r7, #52]	; 0x34
    1c4a:	f362 0303 	bfi	r3, r2, #0, #4
    1c4e:	f887 3034 	strb.w	r3, [r7, #52]	; 0x34
    1c52:	6dbb      	ldr	r3, [r7, #88]	; 0x58
    1c54:	6b1b      	ldr	r3, [r3, #48]	; 0x30
    1c56:	6dba      	ldr	r2, [r7, #88]	; 0x58
    1c58:	68d2      	ldr	r2, [r2, #12]
    1c5a:	4610      	mov	r0, r2
    1c5c:	f107 0230 	add.w	r2, r7, #48	; 0x30
    1c60:	4611      	mov	r1, r2
    1c62:	f04f 0210 	mov.w	r2, #16
    1c66:	4798      	blx	r3
    1c68:	64b8      	str	r0, [r7, #72]	; 0x48
    1c6a:	6cbb      	ldr	r3, [r7, #72]	; 0x48
    1c6c:	2b00      	cmp	r3, #0
    1c6e:	da77      	bge.n	1d60 <can_write+0x214>
    1c70:	f001 fabe 	bl	31f0 <abort>
    1c74:	f8d7 3088 	ldr.w	r3, [r7, #136]	; 0x88
    1c78:	663b      	str	r3, [r7, #96]	; 0x60
    1c7a:	f8d7 0088 	ldr.w	r0, [r7, #136]	; 0x88
    1c7e:	f002 f82b 	bl	3cd8 <nmranet_buffer_size>
    1c82:	4604      	mov	r4, r0
    1c84:	f8d7 0088 	ldr.w	r0, [r7, #136]	; 0x88
    1c88:	f002 f836 	bl	3cf8 <nmranet_buffer_available>
    1c8c:	4603      	mov	r3, r0
    1c8e:	1ae3      	subs	r3, r4, r3
    1c90:	65fb      	str	r3, [r7, #92]	; 0x5c
    1c92:	e05c      	b.n	1d4e <can_write+0x202>
    1c94:	897a      	ldrh	r2, [r7, #10]
    1c96:	f8b7 3066 	ldrh.w	r3, [r7, #102]	; 0x66
    1c9a:	4610      	mov	r0, r2
    1c9c:	4619      	mov	r1, r3
    1c9e:	f7ff ff3b 	bl	1b18 <can_identifier>
    1ca2:	4603      	mov	r3, r0
    1ca4:	623b      	str	r3, [r7, #32]
    1ca6:	f897 3024 	ldrb.w	r3, [r7, #36]	; 0x24
    1caa:	f043 0320 	orr.w	r3, r3, #32
    1cae:	f887 3024 	strb.w	r3, [r7, #36]	; 0x24
    1cb2:	f897 3024 	ldrb.w	r3, [r7, #36]	; 0x24
    1cb6:	f36f 1304 	bfc	r3, #4, #1
    1cba:	f887 3024 	strb.w	r3, [r7, #36]	; 0x24
    1cbe:	f897 3024 	ldrb.w	r3, [r7, #36]	; 0x24
    1cc2:	f36f 1386 	bfc	r3, #6, #1
    1cc6:	f887 3024 	strb.w	r3, [r7, #36]	; 0x24
    1cca:	f8b7 3080 	ldrh.w	r3, [r7, #128]	; 0x80
    1cce:	ea4f 2313 	mov.w	r3, r3, lsr #8
    1cd2:	b29b      	uxth	r3, r3
    1cd4:	b2db      	uxtb	r3, r3
    1cd6:	f887 3025 	strb.w	r3, [r7, #37]	; 0x25
    1cda:	f8b7 3080 	ldrh.w	r3, [r7, #128]	; 0x80
    1cde:	b2db      	uxtb	r3, r3
    1ce0:	f887 3026 	strb.w	r3, [r7, #38]	; 0x26
    1ce4:	6dfb      	ldr	r3, [r7, #92]	; 0x5c
    1ce6:	2b06      	cmp	r3, #6
    1ce8:	bf28      	it	cs
    1cea:	2306      	movcs	r3, #6
    1cec:	647b      	str	r3, [r7, #68]	; 0x44
    1cee:	f107 0320 	add.w	r3, r7, #32
    1cf2:	f103 0307 	add.w	r3, r3, #7
    1cf6:	4618      	mov	r0, r3
    1cf8:	6e39      	ldr	r1, [r7, #96]	; 0x60
    1cfa:	6c7a      	ldr	r2, [r7, #68]	; 0x44
    1cfc:	f00f fdb0 	bl	11860 <memcpy>
    1d00:	6c7b      	ldr	r3, [r7, #68]	; 0x44
    1d02:	b2db      	uxtb	r3, r3
    1d04:	f103 0302 	add.w	r3, r3, #2
    1d08:	b2db      	uxtb	r3, r3
    1d0a:	f003 030f 	and.w	r3, r3, #15
    1d0e:	b2da      	uxtb	r2, r3
    1d10:	f897 3024 	ldrb.w	r3, [r7, #36]	; 0x24
    1d14:	f362 0303 	bfi	r3, r2, #0, #4
    1d18:	f887 3024 	strb.w	r3, [r7, #36]	; 0x24
    1d1c:	6dbb      	ldr	r3, [r7, #88]	; 0x58
    1d1e:	6b1b      	ldr	r3, [r3, #48]	; 0x30
    1d20:	6dba      	ldr	r2, [r7, #88]	; 0x58
    1d22:	68d2      	ldr	r2, [r2, #12]
    1d24:	4610      	mov	r0, r2
    1d26:	f107 0220 	add.w	r2, r7, #32
    1d2a:	4611      	mov	r1, r2
    1d2c:	f04f 0210 	mov.w	r2, #16
    1d30:	4798      	blx	r3
    1d32:	6438      	str	r0, [r7, #64]	; 0x40
    1d34:	6c3b      	ldr	r3, [r7, #64]	; 0x40
    1d36:	2b00      	cmp	r3, #0
    1d38:	da01      	bge.n	1d3e <can_write+0x1f2>
    1d3a:	f001 fa59 	bl	31f0 <abort>
    1d3e:	6dfa      	ldr	r2, [r7, #92]	; 0x5c
    1d40:	6c7b      	ldr	r3, [r7, #68]	; 0x44
    1d42:	1ad3      	subs	r3, r2, r3
    1d44:	65fb      	str	r3, [r7, #92]	; 0x5c
    1d46:	6e3a      	ldr	r2, [r7, #96]	; 0x60
    1d48:	6c7b      	ldr	r3, [r7, #68]	; 0x44
    1d4a:	18d3      	adds	r3, r2, r3
    1d4c:	663b      	str	r3, [r7, #96]	; 0x60
    1d4e:	6dfb      	ldr	r3, [r7, #92]	; 0x5c
    1d50:	2b00      	cmp	r3, #0
    1d52:	d19f      	bne.n	1c94 <can_write+0x148>
    1d54:	f8d7 0088 	ldr.w	r0, [r7, #136]	; 0x88
    1d58:	f001 feec 	bl	3b34 <nmranet_buffer_free>
    1d5c:	bf00      	nop
    1d5e:	e000      	b.n	1d62 <can_write+0x216>
    1d60:	bf00      	nop
    1d62:	e051      	b.n	1e08 <can_write+0x2bc>
    1d64:	f8b7 3066 	ldrh.w	r3, [r7, #102]	; 0x66
    1d68:	2b00      	cmp	r3, #0
    1d6a:	d04d      	beq.n	1e08 <can_write+0x2bc>
    1d6c:	897a      	ldrh	r2, [r7, #10]
    1d6e:	f8b7 3066 	ldrh.w	r3, [r7, #102]	; 0x66
    1d72:	4610      	mov	r0, r2
    1d74:	4619      	mov	r1, r3
    1d76:	f7ff fecf 	bl	1b18 <can_identifier>
    1d7a:	4603      	mov	r3, r0
    1d7c:	613b      	str	r3, [r7, #16]
    1d7e:	7d3b      	ldrb	r3, [r7, #20]
    1d80:	f043 0320 	orr.w	r3, r3, #32
    1d84:	753b      	strb	r3, [r7, #20]
    1d86:	7d3b      	ldrb	r3, [r7, #20]
    1d88:	f36f 1304 	bfc	r3, #4, #1
    1d8c:	753b      	strb	r3, [r7, #20]
    1d8e:	7d3b      	ldrb	r3, [r7, #20]
    1d90:	f36f 1386 	bfc	r3, #6, #1
    1d94:	753b      	strb	r3, [r7, #20]
    1d96:	f8d7 3088 	ldr.w	r3, [r7, #136]	; 0x88
    1d9a:	2b00      	cmp	r3, #0
    1d9c:	d01f      	beq.n	1dde <can_write+0x292>
    1d9e:	f8d7 0088 	ldr.w	r0, [r7, #136]	; 0x88
    1da2:	f001 ff99 	bl	3cd8 <nmranet_buffer_size>
    1da6:	4604      	mov	r4, r0
    1da8:	f8d7 0088 	ldr.w	r0, [r7, #136]	; 0x88
    1dac:	f001 ffa4 	bl	3cf8 <nmranet_buffer_available>
    1db0:	4603      	mov	r3, r0
    1db2:	1ae3      	subs	r3, r4, r3
    1db4:	657b      	str	r3, [r7, #84]	; 0x54
    1db6:	f107 0310 	add.w	r3, r7, #16
    1dba:	f103 0305 	add.w	r3, r3, #5
    1dbe:	4618      	mov	r0, r3
    1dc0:	f8d7 1088 	ldr.w	r1, [r7, #136]	; 0x88
    1dc4:	6d7a      	ldr	r2, [r7, #84]	; 0x54
    1dc6:	f00f fd4b 	bl	11860 <memcpy>
    1dca:	6d7b      	ldr	r3, [r7, #84]	; 0x54
    1dcc:	b2db      	uxtb	r3, r3
    1dce:	f003 030f 	and.w	r3, r3, #15
    1dd2:	b2da      	uxtb	r2, r3
    1dd4:	7d3b      	ldrb	r3, [r7, #20]
    1dd6:	f362 0303 	bfi	r3, r2, #0, #4
    1dda:	753b      	strb	r3, [r7, #20]
    1ddc:	e003      	b.n	1de6 <can_write+0x29a>
    1dde:	7d3b      	ldrb	r3, [r7, #20]
    1de0:	f36f 0303 	bfc	r3, #0, #4
    1de4:	753b      	strb	r3, [r7, #20]
    1de6:	6dbb      	ldr	r3, [r7, #88]	; 0x58
    1de8:	6b1b      	ldr	r3, [r3, #48]	; 0x30
    1dea:	6dba      	ldr	r2, [r7, #88]	; 0x58
    1dec:	68d2      	ldr	r2, [r2, #12]
    1dee:	4610      	mov	r0, r2
    1df0:	f107 0210 	add.w	r2, r7, #16
    1df4:	4611      	mov	r1, r2
    1df6:	f04f 0210 	mov.w	r2, #16
    1dfa:	4798      	blx	r3
    1dfc:	6538      	str	r0, [r7, #80]	; 0x50
    1dfe:	6d3b      	ldr	r3, [r7, #80]	; 0x50
    1e00:	2b00      	cmp	r3, #0
    1e02:	da01      	bge.n	1e08 <can_write+0x2bc>
    1e04:	f001 f9f4 	bl	31f0 <abort>
    1e08:	f04f 0300 	mov.w	r3, #0
    1e0c:	4618      	mov	r0, r3
    1e0e:	f107 076c 	add.w	r7, r7, #108	; 0x6c
    1e12:	46bd      	mov	sp, r7
    1e14:	bd90      	pop	{r4, r7, pc}
    1e16:	bf00      	nop

00001e18 <type_global_addressed>:
    1e18:	b5b0      	push	{r4, r5, r7, lr}
    1e1a:	b094      	sub	sp, #80	; 0x50
    1e1c:	af06      	add	r7, sp, #24
    1e1e:	60f8      	str	r0, [r7, #12]
    1e20:	60b9      	str	r1, [r7, #8]
    1e22:	603b      	str	r3, [r7, #0]
    1e24:	4613      	mov	r3, r2
    1e26:	71fb      	strb	r3, [r7, #7]
    1e28:	68bb      	ldr	r3, [r7, #8]
    1e2a:	b29b      	uxth	r3, r3
    1e2c:	ea4f 5303 	mov.w	r3, r3, lsl #20
    1e30:	ea4f 5313 	mov.w	r3, r3, lsr #20
    1e34:	b29b      	uxth	r3, r3
    1e36:	833b      	strh	r3, [r7, #24]
    1e38:	68fb      	ldr	r3, [r7, #12]
    1e3a:	699a      	ldr	r2, [r3, #24]
    1e3c:	8b3b      	ldrh	r3, [r7, #24]
    1e3e:	4610      	mov	r0, r2
    1e40:	4619      	mov	r1, r3
    1e42:	f001 fcb7 	bl	37b4 <nmranet_alias_lookup_id>
    1e46:	4602      	mov	r2, r0
    1e48:	460b      	mov	r3, r1
    1e4a:	e9c7 2304 	strd	r2, r3, [r7, #16]
    1e4e:	68b8      	ldr	r0, [r7, #8]
    1e50:	f7ff fe42 	bl	1ad8 <nmranet_mti>
    1e54:	4603      	mov	r3, r0
    1e56:	f003 0308 	and.w	r3, r3, #8
    1e5a:	ea4f 03e3 	mov.w	r3, r3, asr #3
    1e5e:	2b00      	cmp	r3, #0
    1e60:	d040      	beq.n	1ee4 <type_global_addressed+0xcc>
    1e62:	683b      	ldr	r3, [r7, #0]
    1e64:	781b      	ldrb	r3, [r3, #0]
    1e66:	461a      	mov	r2, r3
    1e68:	683b      	ldr	r3, [r7, #0]
    1e6a:	f103 0301 	add.w	r3, r3, #1
    1e6e:	781b      	ldrb	r3, [r3, #0]
    1e70:	ea4f 2303 	mov.w	r3, r3, lsl #8
    1e74:	b29b      	uxth	r3, r3
    1e76:	18d3      	adds	r3, r2, r3
    1e78:	86fb      	strh	r3, [r7, #54]	; 0x36
    1e7a:	8efb      	ldrh	r3, [r7, #54]	; 0x36
    1e7c:	4618      	mov	r0, r3
    1e7e:	f7ff fb13 	bl	14a8 <__bswap_16>
    1e82:	4603      	mov	r3, r0
    1e84:	86fb      	strh	r3, [r7, #54]	; 0x36
    1e86:	68fb      	ldr	r3, [r7, #12]
    1e88:	69da      	ldr	r2, [r3, #28]
    1e8a:	8efb      	ldrh	r3, [r7, #54]	; 0x36
    1e8c:	ea4f 5303 	mov.w	r3, r3, lsl #20
    1e90:	ea4f 5313 	mov.w	r3, r3, lsr #20
    1e94:	b29b      	uxth	r3, r3
    1e96:	4610      	mov	r0, r2
    1e98:	4619      	mov	r1, r3
    1e9a:	f001 fc8b 	bl	37b4 <nmranet_alias_lookup_id>
    1e9e:	e9c7 010a 	strd	r0, r1, [r7, #40]	; 0x28
    1ea2:	e9d7 230a 	ldrd	r2, r3, [r7, #40]	; 0x28
    1ea6:	ea52 0103 	orrs.w	r1, r2, r3
    1eaa:	d04a      	beq.n	1f42 <type_global_addressed+0x12a>
    1eac:	68fd      	ldr	r5, [r7, #12]
    1eae:	68b8      	ldr	r0, [r7, #8]
    1eb0:	f7ff fe12 	bl	1ad8 <nmranet_mti>
    1eb4:	4603      	mov	r3, r0
    1eb6:	461c      	mov	r4, r3
    1eb8:	e9d7 230a 	ldrd	r2, r3, [r7, #40]	; 0x28
    1ebc:	e9cd 2302 	strd	r2, r3, [sp, #8]
    1ec0:	f04f 0300 	mov.w	r3, #0
    1ec4:	9304      	str	r3, [sp, #16]
    1ec6:	466b      	mov	r3, sp
    1ec8:	f107 0218 	add.w	r2, r7, #24
    1ecc:	e892 0003 	ldmia.w	r2, {r0, r1}
    1ed0:	e883 0003 	stmia.w	r3, {r0, r1}
    1ed4:	f107 0310 	add.w	r3, r7, #16
    1ed8:	cb0c      	ldmia	r3, {r2, r3}
    1eda:	4628      	mov	r0, r5
    1edc:	4621      	mov	r1, r4
    1ede:	f004 fb3b 	bl	6558 <nmranet_if_rx_data>
    1ee2:	e02e      	b.n	1f42 <type_global_addressed+0x12a>
    1ee4:	68b8      	ldr	r0, [r7, #8]
    1ee6:	f7ff fdf7 	bl	1ad8 <nmranet_mti>
    1eea:	79fb      	ldrb	r3, [r7, #7]
    1eec:	4618      	mov	r0, r3
    1eee:	f001 fd81 	bl	39f4 <nmranet_buffer_alloc>
    1ef2:	6278      	str	r0, [r7, #36]	; 0x24
    1ef4:	79fb      	ldrb	r3, [r7, #7]
    1ef6:	6a78      	ldr	r0, [r7, #36]	; 0x24
    1ef8:	6839      	ldr	r1, [r7, #0]
    1efa:	461a      	mov	r2, r3
    1efc:	f00f fcb0 	bl	11860 <memcpy>
    1f00:	79fb      	ldrb	r3, [r7, #7]
    1f02:	6a78      	ldr	r0, [r7, #36]	; 0x24
    1f04:	4619      	mov	r1, r3
    1f06:	f001 feb1 	bl	3c6c <nmranet_buffer_advance>
    1f0a:	68fd      	ldr	r5, [r7, #12]
    1f0c:	68b8      	ldr	r0, [r7, #8]
    1f0e:	f7ff fde3 	bl	1ad8 <nmranet_mti>
    1f12:	4603      	mov	r3, r0
    1f14:	461c      	mov	r4, r3
    1f16:	f04f 0200 	mov.w	r2, #0
    1f1a:	f04f 0300 	mov.w	r3, #0
    1f1e:	e9cd 2302 	strd	r2, r3, [sp, #8]
    1f22:	6a7b      	ldr	r3, [r7, #36]	; 0x24
    1f24:	9304      	str	r3, [sp, #16]
    1f26:	466b      	mov	r3, sp
    1f28:	f107 0218 	add.w	r2, r7, #24
    1f2c:	e892 0003 	ldmia.w	r2, {r0, r1}
    1f30:	e883 0003 	stmia.w	r3, {r0, r1}
    1f34:	f107 0310 	add.w	r3, r7, #16
    1f38:	cb0c      	ldmia	r3, {r2, r3}
    1f3a:	4628      	mov	r0, r5
    1f3c:	4621      	mov	r1, r4
    1f3e:	f004 fb0b 	bl	6558 <nmranet_if_rx_data>
    1f42:	f107 0738 	add.w	r7, r7, #56	; 0x38
    1f46:	46bd      	mov	sp, r7
    1f48:	bdb0      	pop	{r4, r5, r7, pc}
    1f4a:	bf00      	nop

00001f4c <type_datagram>:
    1f4c:	b480      	push	{r7}
    1f4e:	b085      	sub	sp, #20
    1f50:	af00      	add	r7, sp, #0
    1f52:	60f8      	str	r0, [r7, #12]
    1f54:	60b9      	str	r1, [r7, #8]
    1f56:	603b      	str	r3, [r7, #0]
    1f58:	4613      	mov	r3, r2
    1f5a:	71fb      	strb	r3, [r7, #7]
    1f5c:	f107 0714 	add.w	r7, r7, #20
    1f60:	46bd      	mov	sp, r7
    1f62:	bc80      	pop	{r7}
    1f64:	4770      	bx	lr
    1f66:	bf00      	nop

00001f68 <ccr_cid_frame>:
    1f68:	b480      	push	{r7}
    1f6a:	b083      	sub	sp, #12
    1f6c:	af00      	add	r7, sp, #0
    1f6e:	6078      	str	r0, [r7, #4]
    1f70:	f107 070c 	add.w	r7, r7, #12
    1f74:	46bd      	mov	sp, r7
    1f76:	bc80      	pop	{r7}
    1f78:	4770      	bx	lr
    1f7a:	bf00      	nop

00001f7c <ccr_rid_frame>:
    1f7c:	b480      	push	{r7}
    1f7e:	b083      	sub	sp, #12
    1f80:	af00      	add	r7, sp, #0
    1f82:	6078      	str	r0, [r7, #4]
    1f84:	f107 070c 	add.w	r7, r7, #12
    1f88:	46bd      	mov	sp, r7
    1f8a:	bc80      	pop	{r7}
    1f8c:	4770      	bx	lr
    1f8e:	bf00      	nop

00001f90 <ccr_amd_frame>:
    1f90:	e92d 4fb0 	stmdb	sp!, {r4, r5, r7, r8, r9, sl, fp, lr}
    1f94:	b08a      	sub	sp, #40	; 0x28
    1f96:	af00      	add	r7, sp, #0
    1f98:	61f8      	str	r0, [r7, #28]
    1f9a:	61b9      	str	r1, [r7, #24]
    1f9c:	617a      	str	r2, [r7, #20]
    1f9e:	697b      	ldr	r3, [r7, #20]
    1fa0:	f103 0305 	add.w	r3, r3, #5
    1fa4:	7819      	ldrb	r1, [r3, #0]
    1fa6:	b2ca      	uxtb	r2, r1
    1fa8:	f04f 0300 	mov.w	r3, #0
    1fac:	e9c7 2308 	strd	r2, r3, [r7, #32]
    1fb0:	697b      	ldr	r3, [r7, #20]
    1fb2:	f103 0304 	add.w	r3, r3, #4
    1fb6:	7819      	ldrb	r1, [r3, #0]
    1fb8:	b2ca      	uxtb	r2, r1
    1fba:	f04f 0300 	mov.w	r3, #0
    1fbe:	ea4f 6112 	mov.w	r1, r2, lsr #24
    1fc2:	ea4f 2503 	mov.w	r5, r3, lsl #8
    1fc6:	430d      	orrs	r5, r1
    1fc8:	ea4f 2402 	mov.w	r4, r2, lsl #8
    1fcc:	e9d7 2308 	ldrd	r2, r3, [r7, #32]
    1fd0:	ea42 0204 	orr.w	r2, r2, r4
    1fd4:	ea43 0305 	orr.w	r3, r3, r5
    1fd8:	e9c7 2308 	strd	r2, r3, [r7, #32]
    1fdc:	697b      	ldr	r3, [r7, #20]
    1fde:	f103 0303 	add.w	r3, r3, #3
    1fe2:	7819      	ldrb	r1, [r3, #0]
    1fe4:	b2ca      	uxtb	r2, r1
    1fe6:	f04f 0300 	mov.w	r3, #0
    1fea:	ea4f 4112 	mov.w	r1, r2, lsr #16
    1fee:	ea4f 4903 	mov.w	r9, r3, lsl #16
    1ff2:	ea41 0909 	orr.w	r9, r1, r9
    1ff6:	ea4f 4802 	mov.w	r8, r2, lsl #16
    1ffa:	e9d7 2308 	ldrd	r2, r3, [r7, #32]
    1ffe:	ea42 0208 	orr.w	r2, r2, r8
    2002:	ea43 0309 	orr.w	r3, r3, r9
    2006:	e9c7 2308 	strd	r2, r3, [r7, #32]
    200a:	697b      	ldr	r3, [r7, #20]
    200c:	f103 0302 	add.w	r3, r3, #2
    2010:	7819      	ldrb	r1, [r3, #0]
    2012:	b2ca      	uxtb	r2, r1
    2014:	f04f 0300 	mov.w	r3, #0
    2018:	ea4f 2112 	mov.w	r1, r2, lsr #8
    201c:	ea4f 6b03 	mov.w	fp, r3, lsl #24
    2020:	ea41 0b0b 	orr.w	fp, r1, fp
    2024:	ea4f 6a02 	mov.w	sl, r2, lsl #24
    2028:	e9d7 2308 	ldrd	r2, r3, [r7, #32]
    202c:	ea42 020a 	orr.w	r2, r2, sl
    2030:	ea43 030b 	orr.w	r3, r3, fp
    2034:	e9c7 2308 	strd	r2, r3, [r7, #32]
    2038:	697b      	ldr	r3, [r7, #20]
    203a:	f103 0301 	add.w	r3, r3, #1
    203e:	7819      	ldrb	r1, [r3, #0]
    2040:	b2ca      	uxtb	r2, r1
    2042:	f04f 0300 	mov.w	r3, #0
    2046:	4610      	mov	r0, r2
    2048:	60f8      	str	r0, [r7, #12]
    204a:	f04f 0100 	mov.w	r1, #0
    204e:	60b9      	str	r1, [r7, #8]
    2050:	e9d7 2308 	ldrd	r2, r3, [r7, #32]
    2054:	e9d7 0102 	ldrd	r0, r1, [r7, #8]
    2058:	ea42 0200 	orr.w	r2, r2, r0
    205c:	ea43 0301 	orr.w	r3, r3, r1
    2060:	e9c7 2308 	strd	r2, r3, [r7, #32]
    2064:	697b      	ldr	r3, [r7, #20]
    2066:	7819      	ldrb	r1, [r3, #0]
    2068:	b2ca      	uxtb	r2, r1
    206a:	f04f 0300 	mov.w	r3, #0
    206e:	ea4f 2102 	mov.w	r1, r2, lsl #8
    2072:	6079      	str	r1, [r7, #4]
    2074:	f04f 0300 	mov.w	r3, #0
    2078:	603b      	str	r3, [r7, #0]
    207a:	e9d7 2308 	ldrd	r2, r3, [r7, #32]
    207e:	e9d7 0100 	ldrd	r0, r1, [r7]
    2082:	ea42 0200 	orr.w	r2, r2, r0
    2086:	ea43 0301 	orr.w	r3, r3, r1
    208a:	e9c7 2308 	strd	r2, r3, [r7, #32]
    208e:	69bb      	ldr	r3, [r7, #24]
    2090:	b29b      	uxth	r3, r3
    2092:	ea4f 5303 	mov.w	r3, r3, lsl #20
    2096:	ea4f 5313 	mov.w	r3, r3, lsr #20
    209a:	b29b      	uxth	r3, r3
    209c:	69f8      	ldr	r0, [r7, #28]
    209e:	4619      	mov	r1, r3
    20a0:	e9d7 2308 	ldrd	r2, r3, [r7, #32]
    20a4:	f7ff fc00 	bl	18a8 <downstream_alias_setup>
    20a8:	f107 0728 	add.w	r7, r7, #40	; 0x28
    20ac:	46bd      	mov	sp, r7
    20ae:	e8bd 8fb0 	ldmia.w	sp!, {r4, r5, r7, r8, r9, sl, fp, pc}
    20b2:	bf00      	nop

000020b4 <read_thread>:
    20b4:	b580      	push	{r7, lr}
    20b6:	b08c      	sub	sp, #48	; 0x30
    20b8:	af02      	add	r7, sp, #8
    20ba:	6078      	str	r0, [r7, #4]
    20bc:	687b      	ldr	r3, [r7, #4]
    20be:	623b      	str	r3, [r7, #32]
    20c0:	6a3b      	ldr	r3, [r7, #32]
    20c2:	6adb      	ldr	r3, [r3, #44]	; 0x2c
    20c4:	6a3a      	ldr	r2, [r7, #32]
    20c6:	68d2      	ldr	r2, [r2, #12]
    20c8:	4610      	mov	r0, r2
    20ca:	f107 020c 	add.w	r2, r7, #12
    20ce:	4611      	mov	r1, r2
    20d0:	f04f 0210 	mov.w	r2, #16
    20d4:	4798      	blx	r3
    20d6:	61f8      	str	r0, [r7, #28]
    20d8:	69fb      	ldr	r3, [r7, #28]
    20da:	2b00      	cmp	r3, #0
    20dc:	da01      	bge.n	20e2 <read_thread+0x2e>
    20de:	f001 f887 	bl	31f0 <abort>
    20e2:	7c3b      	ldrb	r3, [r7, #16]
    20e4:	f003 0310 	and.w	r3, r3, #16
    20e8:	b2db      	uxtb	r3, r3
    20ea:	2b00      	cmp	r3, #0
    20ec:	d105      	bne.n	20fa <read_thread+0x46>
    20ee:	7c3b      	ldrb	r3, [r7, #16]
    20f0:	f003 0320 	and.w	r3, r3, #32
    20f4:	b2db      	uxtb	r3, r3
    20f6:	2b00      	cmp	r3, #0
    20f8:	d101      	bne.n	20fe <read_thread+0x4a>
    20fa:	f001 f879 	bl	31f0 <abort>
    20fe:	6a3b      	ldr	r3, [r7, #32]
    2100:	f103 0324 	add.w	r3, r3, #36	; 0x24
    2104:	4618      	mov	r0, r3
    2106:	f7ff f9fd 	bl	1504 <os_mutex_lock>
    210a:	f04f 0300 	mov.w	r3, #0
    210e:	627b      	str	r3, [r7, #36]	; 0x24
    2110:	e050      	b.n	21b4 <read_thread+0x100>
    2112:	6a3b      	ldr	r3, [r7, #32]
    2114:	6a19      	ldr	r1, [r3, #32]
    2116:	6a7a      	ldr	r2, [r7, #36]	; 0x24
    2118:	4613      	mov	r3, r2
    211a:	ea4f 0343 	mov.w	r3, r3, lsl #1
    211e:	189b      	adds	r3, r3, r2
    2120:	ea4f 0383 	mov.w	r3, r3, lsl #2
    2124:	18cb      	adds	r3, r1, r3
    2126:	881b      	ldrh	r3, [r3, #0]
    2128:	461a      	mov	r2, r3
    212a:	68fb      	ldr	r3, [r7, #12]
    212c:	ea4f 5303 	mov.w	r3, r3, lsl #20
    2130:	ea4f 5313 	mov.w	r3, r3, lsr #20
    2134:	429a      	cmp	r2, r3
    2136:	d139      	bne.n	21ac <read_thread+0xf8>
    2138:	6a3b      	ldr	r3, [r7, #32]
    213a:	6a19      	ldr	r1, [r3, #32]
    213c:	6a7a      	ldr	r2, [r7, #36]	; 0x24
    213e:	4613      	mov	r3, r2
    2140:	ea4f 0343 	mov.w	r3, r3, lsl #1
    2144:	189b      	adds	r3, r3, r2
    2146:	ea4f 0383 	mov.w	r3, r3, lsl #2
    214a:	18cb      	adds	r3, r1, r3
    214c:	881b      	ldrh	r3, [r3, #0]
    214e:	2b00      	cmp	r3, #0
    2150:	d01e      	beq.n	2190 <read_thread+0xdc>
    2152:	2b03      	cmp	r3, #3
    2154:	d000      	beq.n	2158 <read_thread+0xa4>
    2156:	e029      	b.n	21ac <read_thread+0xf8>
    2158:	6a3b      	ldr	r3, [r7, #32]
    215a:	6a19      	ldr	r1, [r3, #32]
    215c:	6a7a      	ldr	r2, [r7, #36]	; 0x24
    215e:	4613      	mov	r3, r2
    2160:	ea4f 0343 	mov.w	r3, r3, lsl #1
    2164:	189b      	adds	r3, r3, r2
    2166:	ea4f 0383 	mov.w	r3, r3, lsl #2
    216a:	18cb      	adds	r3, r1, r3
    216c:	f04f 0204 	mov.w	r2, #4
    2170:	721a      	strb	r2, [r3, #8]
    2172:	6a3b      	ldr	r3, [r7, #32]
    2174:	699b      	ldr	r3, [r3, #24]
    2176:	4618      	mov	r0, r3
    2178:	f001 fb5a 	bl	3830 <nmranet_alias_generate>
    217c:	4603      	mov	r3, r0
    217e:	9300      	str	r3, [sp, #0]
    2180:	6a38      	ldr	r0, [r7, #32]
    2182:	f04f 0200 	mov.w	r2, #0
    2186:	f04f 0300 	mov.w	r3, #0
    218a:	f7ff fa7b 	bl	1684 <claim_alias>
    218e:	e00d      	b.n	21ac <read_thread+0xf8>
    2190:	6a3b      	ldr	r3, [r7, #32]
    2192:	6a19      	ldr	r1, [r3, #32]
    2194:	6a7a      	ldr	r2, [r7, #36]	; 0x24
    2196:	4613      	mov	r3, r2
    2198:	ea4f 0343 	mov.w	r3, r3, lsl #1
    219c:	189b      	adds	r3, r3, r2
    219e:	ea4f 0383 	mov.w	r3, r3, lsl #2
    21a2:	18cb      	adds	r3, r1, r3
    21a4:	f04f 0202 	mov.w	r2, #2
    21a8:	721a      	strb	r2, [r3, #8]
    21aa:	bf00      	nop
    21ac:	6a7b      	ldr	r3, [r7, #36]	; 0x24
    21ae:	f103 0301 	add.w	r3, r3, #1
    21b2:	627b      	str	r3, [r7, #36]	; 0x24
    21b4:	f647 23c8 	movw	r3, #31432	; 0x7ac8
    21b8:	f2c0 0301 	movt	r3, #1
    21bc:	681b      	ldr	r3, [r3, #0]
    21be:	6a7a      	ldr	r2, [r7, #36]	; 0x24
    21c0:	429a      	cmp	r2, r3
    21c2:	d3a6      	bcc.n	2112 <read_thread+0x5e>
    21c4:	6a3b      	ldr	r3, [r7, #32]
    21c6:	f103 0324 	add.w	r3, r3, #36	; 0x24
    21ca:	4618      	mov	r0, r3
    21cc:	f7ff f9d8 	bl	1580 <os_mutex_unlock>
    21d0:	68fb      	ldr	r3, [r7, #12]
    21d2:	f003 6300 	and.w	r3, r3, #134217728	; 0x8000000
    21d6:	ea4f 63d3 	mov.w	r3, r3, lsr #27
    21da:	2b00      	cmp	r3, #0
    21dc:	d135      	bne.n	224a <read_thread+0x196>
    21de:	68fb      	ldr	r3, [r7, #12]
    21e0:	f003 63e0 	and.w	r3, r3, #117440512	; 0x7000000
    21e4:	ea4f 6313 	mov.w	r3, r3, lsr #24
    21e8:	2b00      	cmp	r3, #0
    21ea:	d008      	beq.n	21fe <read_thread+0x14a>
    21ec:	f1a3 0304 	sub.w	r3, r3, #4
    21f0:	2b03      	cmp	r3, #3
    21f2:	d861      	bhi.n	22b8 <read_thread+0x204>
    21f4:	68fb      	ldr	r3, [r7, #12]
    21f6:	4618      	mov	r0, r3
    21f8:	f7ff feb6 	bl	1f68 <ccr_cid_frame>
    21fc:	e05f      	b.n	22be <read_thread+0x20a>
    21fe:	68fa      	ldr	r2, [r7, #12]
    2200:	f44f 4370 	mov.w	r3, #61440	; 0xf000
    2204:	f2c0 03ff 	movt	r3, #255	; 0xff
    2208:	4013      	ands	r3, r2
    220a:	ea4f 3313 	mov.w	r3, r3, lsr #12
    220e:	f240 7201 	movw	r2, #1793	; 0x701
    2212:	4293      	cmp	r3, r2
    2214:	d00c      	beq.n	2230 <read_thread+0x17c>
    2216:	f240 7201 	movw	r2, #1793	; 0x701
    221a:	4293      	cmp	r3, r2
    221c:	d303      	bcc.n	2226 <read_thread+0x172>
    221e:	f240 7203 	movw	r2, #1795	; 0x703
    2222:	4293      	cmp	r3, r2
    2224:	d90f      	bls.n	2246 <read_thread+0x192>
    2226:	68fb      	ldr	r3, [r7, #12]
    2228:	4618      	mov	r0, r3
    222a:	f7ff fea7 	bl	1f7c <ccr_rid_frame>
    222e:	e00b      	b.n	2248 <read_thread+0x194>
    2230:	68fa      	ldr	r2, [r7, #12]
    2232:	f107 030c 	add.w	r3, r7, #12
    2236:	f103 0305 	add.w	r3, r3, #5
    223a:	6a38      	ldr	r0, [r7, #32]
    223c:	4611      	mov	r1, r2
    223e:	461a      	mov	r2, r3
    2240:	f7ff fea6 	bl	1f90 <ccr_amd_frame>
    2244:	e000      	b.n	2248 <read_thread+0x194>
    2246:	bf00      	nop
    2248:	e039      	b.n	22be <read_thread+0x20a>
    224a:	68fb      	ldr	r3, [r7, #12]
    224c:	f003 63e0 	and.w	r3, r3, #117440512	; 0x7000000
    2250:	ea4f 6313 	mov.w	r3, r3, lsr #24
    2254:	f103 33ff 	add.w	r3, r3, #4294967295
    2258:	2b06      	cmp	r3, #6
    225a:	d82f      	bhi.n	22bc <read_thread+0x208>
    225c:	a201      	add	r2, pc, #4	; (adr r2, 2264 <read_thread+0x1b0>)
    225e:	f852 f023 	ldr.w	pc, [r2, r3, lsl #2]
    2262:	bf00      	nop
    2264:	00002281 	.word	0x00002281
    2268:	0000229d 	.word	0x0000229d
    226c:	0000229d 	.word	0x0000229d
    2270:	0000229d 	.word	0x0000229d
    2274:	0000229d 	.word	0x0000229d
    2278:	000022bd 	.word	0x000022bd
    227c:	000022bd 	.word	0x000022bd
    2280:	68f9      	ldr	r1, [r7, #12]
    2282:	7c3b      	ldrb	r3, [r7, #16]
    2284:	f3c3 0303 	ubfx	r3, r3, #0, #4
    2288:	b2db      	uxtb	r3, r3
    228a:	461a      	mov	r2, r3
    228c:	f107 030c 	add.w	r3, r7, #12
    2290:	f103 0305 	add.w	r3, r3, #5
    2294:	6a38      	ldr	r0, [r7, #32]
    2296:	f7ff fdbf 	bl	1e18 <type_global_addressed>
    229a:	e010      	b.n	22be <read_thread+0x20a>
    229c:	68f9      	ldr	r1, [r7, #12]
    229e:	7c3b      	ldrb	r3, [r7, #16]
    22a0:	f3c3 0303 	ubfx	r3, r3, #0, #4
    22a4:	b2db      	uxtb	r3, r3
    22a6:	461a      	mov	r2, r3
    22a8:	f107 030c 	add.w	r3, r7, #12
    22ac:	f103 0305 	add.w	r3, r3, #5
    22b0:	6a38      	ldr	r0, [r7, #32]
    22b2:	f7ff fe4b 	bl	1f4c <type_datagram>
    22b6:	e002      	b.n	22be <read_thread+0x20a>
    22b8:	bf00      	nop
    22ba:	e000      	b.n	22be <read_thread+0x20a>
    22bc:	bf00      	nop
    22be:	e6ff      	b.n	20c0 <read_thread+0xc>

000022c0 <nmranet_can_if_init>:
    22c0:	b590      	push	{r4, r7, lr}
    22c2:	b08b      	sub	sp, #44	; 0x2c
    22c4:	af02      	add	r7, sp, #8
    22c6:	e9c7 0102 	strd	r0, r1, [r7, #8]
    22ca:	607a      	str	r2, [r7, #4]
    22cc:	603b      	str	r3, [r7, #0]
    22ce:	f04f 0038 	mov.w	r0, #56	; 0x38
    22d2:	f00e ffc7 	bl	11264 <malloc>
    22d6:	6178      	str	r0, [r7, #20]
    22d8:	697a      	ldr	r2, [r7, #20]
    22da:	f641 334d 	movw	r3, #6989	; 0x1b4d
    22de:	f2c0 0300 	movt	r3, #0
    22e2:	6053      	str	r3, [r2, #4]
    22e4:	697b      	ldr	r3, [r7, #20]
    22e6:	683a      	ldr	r2, [r7, #0]
    22e8:	62da      	str	r2, [r3, #44]	; 0x2c
    22ea:	697b      	ldr	r3, [r7, #20]
    22ec:	6b3a      	ldr	r2, [r7, #48]	; 0x30
    22ee:	631a      	str	r2, [r3, #48]	; 0x30
    22f0:	6878      	ldr	r0, [r7, #4]
    22f2:	f04f 0102 	mov.w	r1, #2
    22f6:	f00f fd9f 	bl	11e38 <open>
    22fa:	4602      	mov	r2, r0
    22fc:	697b      	ldr	r3, [r7, #20]
    22fe:	60da      	str	r2, [r3, #12]
    2300:	697b      	ldr	r3, [r7, #20]
    2302:	68db      	ldr	r3, [r3, #12]
    2304:	2b00      	cmp	r3, #0
    2306:	da01      	bge.n	230c <nmranet_can_if_init+0x4c>
    2308:	f000 ff72 	bl	31f0 <abort>
    230c:	6979      	ldr	r1, [r7, #20]
    230e:	e9d7 2302 	ldrd	r2, r3, [r7, #8]
    2312:	e9c1 2304 	strd	r2, r3, [r1, #16]
    2316:	f647 23c8 	movw	r3, #31432	; 0x7ac8
    231a:	f2c0 0301 	movt	r3, #1
    231e:	681a      	ldr	r2, [r3, #0]
    2320:	4613      	mov	r3, r2
    2322:	ea4f 0343 	mov.w	r3, r3, lsl #1
    2326:	189b      	adds	r3, r3, r2
    2328:	ea4f 0383 	mov.w	r3, r3, lsl #2
    232c:	4618      	mov	r0, r3
    232e:	f00e ff99 	bl	11264 <malloc>
    2332:	4602      	mov	r2, r0
    2334:	697b      	ldr	r3, [r7, #20]
    2336:	621a      	str	r2, [r3, #32]
    2338:	f04f 0300 	mov.w	r3, #0
    233c:	61fb      	str	r3, [r7, #28]
    233e:	e02e      	b.n	239e <nmranet_can_if_init+0xde>
    2340:	697b      	ldr	r3, [r7, #20]
    2342:	6a19      	ldr	r1, [r3, #32]
    2344:	69fa      	ldr	r2, [r7, #28]
    2346:	4613      	mov	r3, r2
    2348:	ea4f 0343 	mov.w	r3, r3, lsl #1
    234c:	189b      	adds	r3, r3, r2
    234e:	ea4f 0383 	mov.w	r3, r3, lsl #2
    2352:	18cb      	adds	r3, r1, r3
    2354:	f04f 0204 	mov.w	r2, #4
    2358:	721a      	strb	r2, [r3, #8]
    235a:	697b      	ldr	r3, [r7, #20]
    235c:	6a19      	ldr	r1, [r3, #32]
    235e:	69fa      	ldr	r2, [r7, #28]
    2360:	4613      	mov	r3, r2
    2362:	ea4f 0343 	mov.w	r3, r3, lsl #1
    2366:	189b      	adds	r3, r3, r2
    2368:	ea4f 0383 	mov.w	r3, r3, lsl #2
    236c:	18cc      	adds	r4, r1, r3
    236e:	697b      	ldr	r3, [r7, #20]
    2370:	6a19      	ldr	r1, [r3, #32]
    2372:	69fa      	ldr	r2, [r7, #28]
    2374:	4613      	mov	r3, r2
    2376:	ea4f 0343 	mov.w	r3, r3, lsl #1
    237a:	189b      	adds	r3, r3, r2
    237c:	ea4f 0383 	mov.w	r3, r3, lsl #2
    2380:	18cb      	adds	r3, r1, r3
    2382:	f241 50c1 	movw	r0, #5569	; 0x15c1
    2386:	f2c0 0000 	movt	r0, #0
    238a:	6979      	ldr	r1, [r7, #20]
    238c:	461a      	mov	r2, r3
    238e:	f000 fcd3 	bl	2d38 <os_timer_create>
    2392:	4603      	mov	r3, r0
    2394:	6063      	str	r3, [r4, #4]
    2396:	69fb      	ldr	r3, [r7, #28]
    2398:	f103 0301 	add.w	r3, r3, #1
    239c:	61fb      	str	r3, [r7, #28]
    239e:	f647 23c8 	movw	r3, #31432	; 0x7ac8
    23a2:	f2c0 0301 	movt	r3, #1
    23a6:	681b      	ldr	r3, [r3, #0]
    23a8:	69fa      	ldr	r2, [r7, #28]
    23aa:	429a      	cmp	r2, r3
    23ac:	d3c8      	bcc.n	2340 <nmranet_can_if_init+0x80>
    23ae:	f647 23cc 	movw	r3, #31436	; 0x7acc
    23b2:	f2c0 0301 	movt	r3, #1
    23b6:	681b      	ldr	r3, [r3, #0]
    23b8:	e9d7 0102 	ldrd	r0, r1, [r7, #8]
    23bc:	461a      	mov	r2, r3
    23be:	f001 f8c3 	bl	3548 <nmranet_alias_cache_create>
    23c2:	4602      	mov	r2, r0
    23c4:	697b      	ldr	r3, [r7, #20]
    23c6:	619a      	str	r2, [r3, #24]
    23c8:	f647 23d0 	movw	r3, #31440	; 0x7ad0
    23cc:	f2c0 0301 	movt	r3, #1
    23d0:	681b      	ldr	r3, [r3, #0]
    23d2:	e9d7 0102 	ldrd	r0, r1, [r7, #8]
    23d6:	461a      	mov	r2, r3
    23d8:	f001 f8b6 	bl	3548 <nmranet_alias_cache_create>
    23dc:	4602      	mov	r2, r0
    23de:	697b      	ldr	r3, [r7, #20]
    23e0:	61da      	str	r2, [r3, #28]
    23e2:	697b      	ldr	r3, [r7, #20]
    23e4:	f103 0324 	add.w	r3, r3, #36	; 0x24
    23e8:	4618      	mov	r0, r3
    23ea:	f7ff f875 	bl	14d8 <os_mutex_init>
    23ee:	f04f 0300 	mov.w	r3, #0
    23f2:	61bb      	str	r3, [r7, #24]
    23f4:	e01d      	b.n	2432 <nmranet_can_if_init+0x172>
    23f6:	697b      	ldr	r3, [r7, #20]
    23f8:	f103 0324 	add.w	r3, r3, #36	; 0x24
    23fc:	4618      	mov	r0, r3
    23fe:	f7ff f881 	bl	1504 <os_mutex_lock>
    2402:	697b      	ldr	r3, [r7, #20]
    2404:	699b      	ldr	r3, [r3, #24]
    2406:	4618      	mov	r0, r3
    2408:	f001 fa12 	bl	3830 <nmranet_alias_generate>
    240c:	4603      	mov	r3, r0
    240e:	9300      	str	r3, [sp, #0]
    2410:	6978      	ldr	r0, [r7, #20]
    2412:	f04f 0200 	mov.w	r2, #0
    2416:	f04f 0300 	mov.w	r3, #0
    241a:	f7ff f933 	bl	1684 <claim_alias>
    241e:	697b      	ldr	r3, [r7, #20]
    2420:	f103 0324 	add.w	r3, r3, #36	; 0x24
    2424:	4618      	mov	r0, r3
    2426:	f7ff f8ab 	bl	1580 <os_mutex_unlock>
    242a:	69bb      	ldr	r3, [r7, #24]
    242c:	f103 0301 	add.w	r3, r3, #1
    2430:	61bb      	str	r3, [r7, #24]
    2432:	69ba      	ldr	r2, [r7, #24]
    2434:	f647 23c8 	movw	r3, #31432	; 0x7ac8
    2438:	f2c0 0301 	movt	r3, #1
    243c:	681b      	ldr	r3, [r3, #0]
    243e:	429a      	cmp	r2, r3
    2440:	d3d9      	bcc.n	23f6 <nmranet_can_if_init+0x136>
    2442:	697b      	ldr	r3, [r7, #20]
    2444:	9300      	str	r3, [sp, #0]
    2446:	f107 0310 	add.w	r3, r7, #16
    244a:	4618      	mov	r0, r3
    244c:	f04f 0100 	mov.w	r1, #0
    2450:	f44f 6280 	mov.w	r2, #1024	; 0x400
    2454:	f242 03b5 	movw	r3, #8373	; 0x20b5
    2458:	f2c0 0300 	movt	r3, #0
    245c:	f000 fd3a 	bl	2ed4 <os_thread_create>
    2460:	697b      	ldr	r3, [r7, #20]
    2462:	4618      	mov	r0, r3
    2464:	f107 0724 	add.w	r7, r7, #36	; 0x24
    2468:	46bd      	mov	sp, r7
    246a:	bd90      	pop	{r4, r7, pc}
    246c:	f3af 8000 	nop.w

00002470 <nibble_to_ascii>:
    2470:	b480      	push	{r7}
    2472:	b083      	sub	sp, #12
    2474:	af00      	add	r7, sp, #0
    2476:	6078      	str	r0, [r7, #4]
    2478:	687b      	ldr	r3, [r7, #4]
    247a:	f003 030f 	and.w	r3, r3, #15
    247e:	607b      	str	r3, [r7, #4]
    2480:	687b      	ldr	r3, [r7, #4]
    2482:	2b09      	cmp	r3, #9
    2484:	dc05      	bgt.n	2492 <nibble_to_ascii+0x22>
    2486:	687b      	ldr	r3, [r7, #4]
    2488:	b2db      	uxtb	r3, r3
    248a:	f103 0330 	add.w	r3, r3, #48	; 0x30
    248e:	b2db      	uxtb	r3, r3
    2490:	e004      	b.n	249c <nibble_to_ascii+0x2c>
    2492:	687b      	ldr	r3, [r7, #4]
    2494:	b2db      	uxtb	r3, r3
    2496:	f103 0337 	add.w	r3, r3, #55	; 0x37
    249a:	b2db      	uxtb	r3, r3
    249c:	4618      	mov	r0, r3
    249e:	f107 070c 	add.w	r7, r7, #12
    24a2:	46bd      	mov	sp, r7
    24a4:	bc80      	pop	{r7}
    24a6:	4770      	bx	lr

000024a8 <ascii_pair_to_byte>:
    24a8:	b480      	push	{r7}
    24aa:	b085      	sub	sp, #20
    24ac:	af00      	add	r7, sp, #0
    24ae:	6078      	str	r0, [r7, #4]
    24b0:	687b      	ldr	r3, [r7, #4]
    24b2:	60bb      	str	r3, [r7, #8]
    24b4:	68bb      	ldr	r3, [r7, #8]
    24b6:	f103 0301 	add.w	r3, r3, #1
    24ba:	781b      	ldrb	r3, [r3, #0]
    24bc:	2b40      	cmp	r3, #64	; 0x40
    24be:	d807      	bhi.n	24d0 <ascii_pair_to_byte+0x28>
    24c0:	68bb      	ldr	r3, [r7, #8]
    24c2:	f103 0301 	add.w	r3, r3, #1
    24c6:	781b      	ldrb	r3, [r3, #0]
    24c8:	f1a3 0330 	sub.w	r3, r3, #48	; 0x30
    24cc:	60fb      	str	r3, [r7, #12]
    24ce:	e006      	b.n	24de <ascii_pair_to_byte+0x36>
    24d0:	68bb      	ldr	r3, [r7, #8]
    24d2:	f103 0301 	add.w	r3, r3, #1
    24d6:	781b      	ldrb	r3, [r3, #0]
    24d8:	f1a3 0337 	sub.w	r3, r3, #55	; 0x37
    24dc:	60fb      	str	r3, [r7, #12]
    24de:	68bb      	ldr	r3, [r7, #8]
    24e0:	781b      	ldrb	r3, [r3, #0]
    24e2:	2b40      	cmp	r3, #64	; 0x40
    24e4:	d809      	bhi.n	24fa <ascii_pair_to_byte+0x52>
    24e6:	68bb      	ldr	r3, [r7, #8]
    24e8:	781b      	ldrb	r3, [r3, #0]
    24ea:	f1a3 0330 	sub.w	r3, r3, #48	; 0x30
    24ee:	ea4f 1303 	mov.w	r3, r3, lsl #4
    24f2:	68fa      	ldr	r2, [r7, #12]
    24f4:	18d3      	adds	r3, r2, r3
    24f6:	60fb      	str	r3, [r7, #12]
    24f8:	e008      	b.n	250c <ascii_pair_to_byte+0x64>
    24fa:	68bb      	ldr	r3, [r7, #8]
    24fc:	781b      	ldrb	r3, [r3, #0]
    24fe:	f1a3 0337 	sub.w	r3, r3, #55	; 0x37
    2502:	ea4f 1303 	mov.w	r3, r3, lsl #4
    2506:	68fa      	ldr	r2, [r7, #12]
    2508:	18d3      	adds	r3, r2, r3
    250a:	60fb      	str	r3, [r7, #12]
    250c:	68fb      	ldr	r3, [r7, #12]
    250e:	4618      	mov	r0, r3
    2510:	f107 0714 	add.w	r7, r7, #20
    2514:	46bd      	mov	sp, r7
    2516:	bc80      	pop	{r7}
    2518:	4770      	bx	lr
    251a:	bf00      	nop

0000251c <gc_write>:
    251c:	b5b0      	push	{r4, r5, r7, lr}
    251e:	b09a      	sub	sp, #104	; 0x68
    2520:	af00      	add	r7, sp, #0
    2522:	60f8      	str	r0, [r7, #12]
    2524:	60b9      	str	r1, [r7, #8]
    2526:	607a      	str	r2, [r7, #4]
    2528:	68bb      	ldr	r3, [r7, #8]
    252a:	667b      	str	r3, [r7, #100]	; 0x64
    252c:	687b      	ldr	r3, [r7, #4]
    252e:	663b      	str	r3, [r7, #96]	; 0x60
    2530:	687b      	ldr	r3, [r7, #4]
    2532:	f003 030f 	and.w	r3, r3, #15
    2536:	2b00      	cmp	r3, #0
    2538:	d008      	beq.n	254c <gc_write+0x30>
    253a:	f00e fd51 	bl	10fe0 <__errno>
    253e:	4603      	mov	r3, r0
    2540:	f04f 0216 	mov.w	r2, #22
    2544:	601a      	str	r2, [r3, #0]
    2546:	f04f 33ff 	mov.w	r3, #4294967295
    254a:	e133      	b.n	27b4 <gc_write+0x298>
    254c:	f04f 0321 	mov.w	r3, #33	; 0x21
    2550:	747b      	strb	r3, [r7, #17]
    2552:	7c7b      	ldrb	r3, [r7, #17]
    2554:	743b      	strb	r3, [r7, #16]
    2556:	e128      	b.n	27aa <gc_write+0x28e>
    2558:	6e7b      	ldr	r3, [r7, #100]	; 0x64
    255a:	791b      	ldrb	r3, [r3, #4]
    255c:	f003 0320 	and.w	r3, r3, #32
    2560:	b2db      	uxtb	r3, r3
    2562:	2b00      	cmp	r3, #0
    2564:	d032      	beq.n	25cc <gc_write+0xb0>
    2566:	f04f 0358 	mov.w	r3, #88	; 0x58
    256a:	74fb      	strb	r3, [r7, #19]
    256c:	7cfb      	ldrb	r3, [r7, #19]
    256e:	74bb      	strb	r3, [r7, #18]
    2570:	6e7b      	ldr	r3, [r7, #100]	; 0x64
    2572:	681b      	ldr	r3, [r3, #0]
    2574:	65bb      	str	r3, [r7, #88]	; 0x58
    2576:	f04f 0312 	mov.w	r3, #18
    257a:	657b      	str	r3, [r7, #84]	; 0x54
    257c:	e01f      	b.n	25be <gc_write+0xa2>
    257e:	6d7b      	ldr	r3, [r7, #84]	; 0x54
    2580:	f103 0401 	add.w	r4, r3, #1
    2584:	6dbb      	ldr	r3, [r7, #88]	; 0x58
    2586:	4618      	mov	r0, r3
    2588:	f7ff ff72 	bl	2470 <nibble_to_ascii>
    258c:	4603      	mov	r3, r0
    258e:	461a      	mov	r2, r3
    2590:	f107 0168 	add.w	r1, r7, #104	; 0x68
    2594:	190b      	adds	r3, r1, r4
    2596:	f803 2c58 	strb.w	r2, [r3, #-88]
    259a:	f107 0268 	add.w	r2, r7, #104	; 0x68
    259e:	1913      	adds	r3, r2, r4
    25a0:	f813 2c58 	ldrb.w	r2, [r3, #-88]
    25a4:	6d7b      	ldr	r3, [r7, #84]	; 0x54
    25a6:	f107 0110 	add.w	r1, r7, #16
    25aa:	18cb      	adds	r3, r1, r3
    25ac:	701a      	strb	r2, [r3, #0]
    25ae:	6d7b      	ldr	r3, [r7, #84]	; 0x54
    25b0:	f1a3 0302 	sub.w	r3, r3, #2
    25b4:	657b      	str	r3, [r7, #84]	; 0x54
    25b6:	6dbb      	ldr	r3, [r7, #88]	; 0x58
    25b8:	ea4f 1313 	mov.w	r3, r3, lsr #4
    25bc:	65bb      	str	r3, [r7, #88]	; 0x58
    25be:	6d7b      	ldr	r3, [r7, #84]	; 0x54
    25c0:	2b03      	cmp	r3, #3
    25c2:	dcdc      	bgt.n	257e <gc_write+0x62>
    25c4:	f04f 0314 	mov.w	r3, #20
    25c8:	65fb      	str	r3, [r7, #92]	; 0x5c
    25ca:	e035      	b.n	2638 <gc_write+0x11c>
    25cc:	f04f 0353 	mov.w	r3, #83	; 0x53
    25d0:	74fb      	strb	r3, [r7, #19]
    25d2:	7cfb      	ldrb	r3, [r7, #19]
    25d4:	74bb      	strb	r3, [r7, #18]
    25d6:	6e7b      	ldr	r3, [r7, #100]	; 0x64
    25d8:	681b      	ldr	r3, [r3, #0]
    25da:	f8a7 3052 	strh.w	r3, [r7, #82]	; 0x52
    25de:	f04f 0308 	mov.w	r3, #8
    25e2:	64fb      	str	r3, [r7, #76]	; 0x4c
    25e4:	e022      	b.n	262c <gc_write+0x110>
    25e6:	6cfb      	ldr	r3, [r7, #76]	; 0x4c
    25e8:	f103 0401 	add.w	r4, r3, #1
    25ec:	f8b7 3052 	ldrh.w	r3, [r7, #82]	; 0x52
    25f0:	4618      	mov	r0, r3
    25f2:	f7ff ff3d 	bl	2470 <nibble_to_ascii>
    25f6:	4603      	mov	r3, r0
    25f8:	461a      	mov	r2, r3
    25fa:	f107 0168 	add.w	r1, r7, #104	; 0x68
    25fe:	190b      	adds	r3, r1, r4
    2600:	f803 2c58 	strb.w	r2, [r3, #-88]
    2604:	f107 0268 	add.w	r2, r7, #104	; 0x68
    2608:	1913      	adds	r3, r2, r4
    260a:	f813 2c58 	ldrb.w	r2, [r3, #-88]
    260e:	6cfb      	ldr	r3, [r7, #76]	; 0x4c
    2610:	f107 0110 	add.w	r1, r7, #16
    2614:	18cb      	adds	r3, r1, r3
    2616:	701a      	strb	r2, [r3, #0]
    2618:	6cfb      	ldr	r3, [r7, #76]	; 0x4c
    261a:	f1a3 0302 	sub.w	r3, r3, #2
    261e:	64fb      	str	r3, [r7, #76]	; 0x4c
    2620:	f8b7 3052 	ldrh.w	r3, [r7, #82]	; 0x52
    2624:	ea4f 1313 	mov.w	r3, r3, lsr #4
    2628:	f8a7 3052 	strh.w	r3, [r7, #82]	; 0x52
    262c:	6cfb      	ldr	r3, [r7, #76]	; 0x4c
    262e:	2b03      	cmp	r3, #3
    2630:	dcd9      	bgt.n	25e6 <gc_write+0xca>
    2632:	f04f 030a 	mov.w	r3, #10
    2636:	65fb      	str	r3, [r7, #92]	; 0x5c
    2638:	6e7b      	ldr	r3, [r7, #100]	; 0x64
    263a:	791b      	ldrb	r3, [r3, #4]
    263c:	f003 0310 	and.w	r3, r3, #16
    2640:	b2db      	uxtb	r3, r3
    2642:	2b00      	cmp	r3, #0
    2644:	d018      	beq.n	2678 <gc_write+0x15c>
    2646:	6dfb      	ldr	r3, [r7, #92]	; 0x5c
    2648:	f103 0301 	add.w	r3, r3, #1
    264c:	f107 0168 	add.w	r1, r7, #104	; 0x68
    2650:	18ca      	adds	r2, r1, r3
    2652:	f04f 0152 	mov.w	r1, #82	; 0x52
    2656:	f802 1c58 	strb.w	r1, [r2, #-88]
    265a:	f107 0268 	add.w	r2, r7, #104	; 0x68
    265e:	18d3      	adds	r3, r2, r3
    2660:	f813 2c58 	ldrb.w	r2, [r3, #-88]
    2664:	6dfb      	ldr	r3, [r7, #92]	; 0x5c
    2666:	f107 0110 	add.w	r1, r7, #16
    266a:	18cb      	adds	r3, r1, r3
    266c:	701a      	strb	r2, [r3, #0]
    266e:	6dfb      	ldr	r3, [r7, #92]	; 0x5c
    2670:	f103 0302 	add.w	r3, r3, #2
    2674:	65fb      	str	r3, [r7, #92]	; 0x5c
    2676:	e017      	b.n	26a8 <gc_write+0x18c>
    2678:	6dfb      	ldr	r3, [r7, #92]	; 0x5c
    267a:	f103 0301 	add.w	r3, r3, #1
    267e:	f107 0168 	add.w	r1, r7, #104	; 0x68
    2682:	18ca      	adds	r2, r1, r3
    2684:	f04f 014e 	mov.w	r1, #78	; 0x4e
    2688:	f802 1c58 	strb.w	r1, [r2, #-88]
    268c:	f107 0268 	add.w	r2, r7, #104	; 0x68
    2690:	18d3      	adds	r3, r2, r3
    2692:	f813 2c58 	ldrb.w	r2, [r3, #-88]
    2696:	6dfb      	ldr	r3, [r7, #92]	; 0x5c
    2698:	f107 0110 	add.w	r1, r7, #16
    269c:	18cb      	adds	r3, r1, r3
    269e:	701a      	strb	r2, [r3, #0]
    26a0:	6dfb      	ldr	r3, [r7, #92]	; 0x5c
    26a2:	f103 0302 	add.w	r3, r3, #2
    26a6:	65fb      	str	r3, [r7, #92]	; 0x5c
    26a8:	f04f 0300 	mov.w	r3, #0
    26ac:	64bb      	str	r3, [r7, #72]	; 0x48
    26ae:	e043      	b.n	2738 <gc_write+0x21c>
    26b0:	6dfb      	ldr	r3, [r7, #92]	; 0x5c
    26b2:	f103 0401 	add.w	r4, r3, #1
    26b6:	6e7a      	ldr	r2, [r7, #100]	; 0x64
    26b8:	6cbb      	ldr	r3, [r7, #72]	; 0x48
    26ba:	18d3      	adds	r3, r2, r3
    26bc:	795b      	ldrb	r3, [r3, #5]
    26be:	ea4f 1313 	mov.w	r3, r3, lsr #4
    26c2:	b2db      	uxtb	r3, r3
    26c4:	4618      	mov	r0, r3
    26c6:	f7ff fed3 	bl	2470 <nibble_to_ascii>
    26ca:	4603      	mov	r3, r0
    26cc:	461a      	mov	r2, r3
    26ce:	f107 0168 	add.w	r1, r7, #104	; 0x68
    26d2:	190b      	adds	r3, r1, r4
    26d4:	f803 2c58 	strb.w	r2, [r3, #-88]
    26d8:	f107 0268 	add.w	r2, r7, #104	; 0x68
    26dc:	1913      	adds	r3, r2, r4
    26de:	f813 2c58 	ldrb.w	r2, [r3, #-88]
    26e2:	6dfb      	ldr	r3, [r7, #92]	; 0x5c
    26e4:	f107 0110 	add.w	r1, r7, #16
    26e8:	18cb      	adds	r3, r1, r3
    26ea:	701a      	strb	r2, [r3, #0]
    26ec:	6dfb      	ldr	r3, [r7, #92]	; 0x5c
    26ee:	f103 0502 	add.w	r5, r3, #2
    26f2:	6dfb      	ldr	r3, [r7, #92]	; 0x5c
    26f4:	f103 0403 	add.w	r4, r3, #3
    26f8:	6e7a      	ldr	r2, [r7, #100]	; 0x64
    26fa:	6cbb      	ldr	r3, [r7, #72]	; 0x48
    26fc:	18d3      	adds	r3, r2, r3
    26fe:	795b      	ldrb	r3, [r3, #5]
    2700:	4618      	mov	r0, r3
    2702:	f7ff feb5 	bl	2470 <nibble_to_ascii>
    2706:	4603      	mov	r3, r0
    2708:	461a      	mov	r2, r3
    270a:	f107 0168 	add.w	r1, r7, #104	; 0x68
    270e:	190b      	adds	r3, r1, r4
    2710:	f803 2c58 	strb.w	r2, [r3, #-88]
    2714:	f107 0268 	add.w	r2, r7, #104	; 0x68
    2718:	1913      	adds	r3, r2, r4
    271a:	f813 2c58 	ldrb.w	r2, [r3, #-88]
    271e:	f107 0168 	add.w	r1, r7, #104	; 0x68
    2722:	194b      	adds	r3, r1, r5
    2724:	f803 2c58 	strb.w	r2, [r3, #-88]
    2728:	6cbb      	ldr	r3, [r7, #72]	; 0x48
    272a:	f103 0301 	add.w	r3, r3, #1
    272e:	64bb      	str	r3, [r7, #72]	; 0x48
    2730:	6dfb      	ldr	r3, [r7, #92]	; 0x5c
    2732:	f103 0304 	add.w	r3, r3, #4
    2736:	65fb      	str	r3, [r7, #92]	; 0x5c
    2738:	6e7b      	ldr	r3, [r7, #100]	; 0x64
    273a:	791b      	ldrb	r3, [r3, #4]
    273c:	f3c3 0303 	ubfx	r3, r3, #0, #4
    2740:	b2db      	uxtb	r3, r3
    2742:	461a      	mov	r2, r3
    2744:	6cbb      	ldr	r3, [r7, #72]	; 0x48
    2746:	429a      	cmp	r2, r3
    2748:	dcb2      	bgt.n	26b0 <gc_write+0x194>
    274a:	6dfb      	ldr	r3, [r7, #92]	; 0x5c
    274c:	f103 0301 	add.w	r3, r3, #1
    2750:	f107 0168 	add.w	r1, r7, #104	; 0x68
    2754:	18ca      	adds	r2, r1, r3
    2756:	f04f 013b 	mov.w	r1, #59	; 0x3b
    275a:	f802 1c58 	strb.w	r1, [r2, #-88]
    275e:	f107 0268 	add.w	r2, r7, #104	; 0x68
    2762:	18d3      	adds	r3, r2, r3
    2764:	f813 2c58 	ldrb.w	r2, [r3, #-88]
    2768:	6dfb      	ldr	r3, [r7, #92]	; 0x5c
    276a:	f107 0110 	add.w	r1, r7, #16
    276e:	18cb      	adds	r3, r1, r3
    2770:	701a      	strb	r2, [r3, #0]
    2772:	6dfb      	ldr	r3, [r7, #92]	; 0x5c
    2774:	f103 0302 	add.w	r3, r3, #2
    2778:	65fb      	str	r3, [r7, #92]	; 0x5c
    277a:	6dfb      	ldr	r3, [r7, #92]	; 0x5c
    277c:	68f8      	ldr	r0, [r7, #12]
    277e:	f107 0210 	add.w	r2, r7, #16
    2782:	4611      	mov	r1, r2
    2784:	461a      	mov	r2, r3
    2786:	f00f fb7b 	bl	11e80 <write>
    278a:	6478      	str	r0, [r7, #68]	; 0x44
    278c:	6c7a      	ldr	r2, [r7, #68]	; 0x44
    278e:	6dfb      	ldr	r3, [r7, #92]	; 0x5c
    2790:	429a      	cmp	r2, r3
    2792:	d002      	beq.n	279a <gc_write+0x27e>
    2794:	f04f 33ff 	mov.w	r3, #4294967295
    2798:	e00c      	b.n	27b4 <gc_write+0x298>
    279a:	6e3b      	ldr	r3, [r7, #96]	; 0x60
    279c:	f1a3 0310 	sub.w	r3, r3, #16
    27a0:	663b      	str	r3, [r7, #96]	; 0x60
    27a2:	6e7b      	ldr	r3, [r7, #100]	; 0x64
    27a4:	f103 0310 	add.w	r3, r3, #16
    27a8:	667b      	str	r3, [r7, #100]	; 0x64
    27aa:	6e3b      	ldr	r3, [r7, #96]	; 0x60
    27ac:	2b00      	cmp	r3, #0
    27ae:	f47f aed3 	bne.w	2558 <gc_write+0x3c>
    27b2:	687b      	ldr	r3, [r7, #4]
    27b4:	4618      	mov	r0, r3
    27b6:	f107 0768 	add.w	r7, r7, #104	; 0x68
    27ba:	46bd      	mov	sp, r7
    27bc:	bdb0      	pop	{r4, r5, r7, pc}
    27be:	bf00      	nop

000027c0 <gc_read>:
    27c0:	b580      	push	{r7, lr}
    27c2:	b098      	sub	sp, #96	; 0x60
    27c4:	af00      	add	r7, sp, #0
    27c6:	60f8      	str	r0, [r7, #12]
    27c8:	60b9      	str	r1, [r7, #8]
    27ca:	607a      	str	r2, [r7, #4]
    27cc:	68bb      	ldr	r3, [r7, #8]
    27ce:	65fb      	str	r3, [r7, #92]	; 0x5c
    27d0:	687b      	ldr	r3, [r7, #4]
    27d2:	65bb      	str	r3, [r7, #88]	; 0x58
    27d4:	687b      	ldr	r3, [r7, #4]
    27d6:	f003 030f 	and.w	r3, r3, #15
    27da:	2b00      	cmp	r3, #0
    27dc:	f000 8103 	beq.w	29e6 <gc_read+0x226>
    27e0:	f00e fbfe 	bl	10fe0 <__errno>
    27e4:	4603      	mov	r3, r0
    27e6:	f04f 0216 	mov.w	r2, #22
    27ea:	601a      	str	r2, [r3, #0]
    27ec:	f04f 33ff 	mov.w	r3, #4294967295
    27f0:	e0fe      	b.n	29f0 <gc_read+0x230>
    27f2:	bf00      	nop
    27f4:	68f8      	ldr	r0, [r7, #12]
    27f6:	f107 0314 	add.w	r3, r7, #20
    27fa:	4619      	mov	r1, r3
    27fc:	f04f 0201 	mov.w	r2, #1
    2800:	f00f fb30 	bl	11e64 <read>
    2804:	64b8      	str	r0, [r7, #72]	; 0x48
    2806:	6cbb      	ldr	r3, [r7, #72]	; 0x48
    2808:	2b00      	cmp	r3, #0
    280a:	dc02      	bgt.n	2812 <gc_read+0x52>
    280c:	f04f 33ff 	mov.w	r3, #4294967295
    2810:	e0ee      	b.n	29f0 <gc_read+0x230>
    2812:	7d3b      	ldrb	r3, [r7, #20]
    2814:	2b3a      	cmp	r3, #58	; 0x3a
    2816:	d1ed      	bne.n	27f4 <gc_read+0x34>
    2818:	f04f 0301 	mov.w	r3, #1
    281c:	657b      	str	r3, [r7, #84]	; 0x54
    281e:	e01b      	b.n	2858 <gc_read+0x98>
    2820:	6d7b      	ldr	r3, [r7, #84]	; 0x54
    2822:	f107 0214 	add.w	r2, r7, #20
    2826:	18d3      	adds	r3, r2, r3
    2828:	68f8      	ldr	r0, [r7, #12]
    282a:	4619      	mov	r1, r3
    282c:	f04f 0201 	mov.w	r2, #1
    2830:	f00f fb18 	bl	11e64 <read>
    2834:	6478      	str	r0, [r7, #68]	; 0x44
    2836:	6c7b      	ldr	r3, [r7, #68]	; 0x44
    2838:	2b00      	cmp	r3, #0
    283a:	dc02      	bgt.n	2842 <gc_read+0x82>
    283c:	f04f 33ff 	mov.w	r3, #4294967295
    2840:	e0d6      	b.n	29f0 <gc_read+0x230>
    2842:	6d7b      	ldr	r3, [r7, #84]	; 0x54
    2844:	f107 0214 	add.w	r2, r7, #20
    2848:	18d3      	adds	r3, r2, r3
    284a:	781b      	ldrb	r3, [r3, #0]
    284c:	2b3b      	cmp	r3, #59	; 0x3b
    284e:	d007      	beq.n	2860 <gc_read+0xa0>
    2850:	6d7b      	ldr	r3, [r7, #84]	; 0x54
    2852:	f103 0301 	add.w	r3, r3, #1
    2856:	657b      	str	r3, [r7, #84]	; 0x54
    2858:	6d7b      	ldr	r3, [r7, #84]	; 0x54
    285a:	2b27      	cmp	r3, #39	; 0x27
    285c:	dde0      	ble.n	2820 <gc_read+0x60>
    285e:	e000      	b.n	2862 <gc_read+0xa2>
    2860:	bf00      	nop
    2862:	6d7b      	ldr	r3, [r7, #84]	; 0x54
    2864:	2b28      	cmp	r3, #40	; 0x28
    2866:	d0c4      	beq.n	27f2 <gc_read+0x32>
    2868:	bf00      	nop
    286a:	7d7b      	ldrb	r3, [r7, #21]
    286c:	2b58      	cmp	r3, #88	; 0x58
    286e:	d13b      	bne.n	28e8 <gc_read+0x128>
    2870:	6dfa      	ldr	r2, [r7, #92]	; 0x5c
    2872:	7913      	ldrb	r3, [r2, #4]
    2874:	f043 0320 	orr.w	r3, r3, #32
    2878:	7113      	strb	r3, [r2, #4]
    287a:	f107 0314 	add.w	r3, r7, #20
    287e:	f103 0302 	add.w	r3, r3, #2
    2882:	4618      	mov	r0, r3
    2884:	f7ff fe10 	bl	24a8 <ascii_pair_to_byte>
    2888:	4603      	mov	r3, r0
    288a:	ea4f 6303 	mov.w	r3, r3, lsl #24
    288e:	643b      	str	r3, [r7, #64]	; 0x40
    2890:	f107 0314 	add.w	r3, r7, #20
    2894:	f103 0304 	add.w	r3, r3, #4
    2898:	4618      	mov	r0, r3
    289a:	f7ff fe05 	bl	24a8 <ascii_pair_to_byte>
    289e:	4603      	mov	r3, r0
    28a0:	ea4f 4303 	mov.w	r3, r3, lsl #16
    28a4:	6c3a      	ldr	r2, [r7, #64]	; 0x40
    28a6:	18d3      	adds	r3, r2, r3
    28a8:	643b      	str	r3, [r7, #64]	; 0x40
    28aa:	f107 0314 	add.w	r3, r7, #20
    28ae:	f103 0306 	add.w	r3, r3, #6
    28b2:	4618      	mov	r0, r3
    28b4:	f7ff fdf8 	bl	24a8 <ascii_pair_to_byte>
    28b8:	4603      	mov	r3, r0
    28ba:	ea4f 2303 	mov.w	r3, r3, lsl #8
    28be:	6c3a      	ldr	r2, [r7, #64]	; 0x40
    28c0:	18d3      	adds	r3, r2, r3
    28c2:	643b      	str	r3, [r7, #64]	; 0x40
    28c4:	f107 0314 	add.w	r3, r7, #20
    28c8:	f103 0308 	add.w	r3, r3, #8
    28cc:	4618      	mov	r0, r3
    28ce:	f7ff fdeb 	bl	24a8 <ascii_pair_to_byte>
    28d2:	4603      	mov	r3, r0
    28d4:	6c3a      	ldr	r2, [r7, #64]	; 0x40
    28d6:	18d3      	adds	r3, r2, r3
    28d8:	643b      	str	r3, [r7, #64]	; 0x40
    28da:	6dfb      	ldr	r3, [r7, #92]	; 0x5c
    28dc:	6c3a      	ldr	r2, [r7, #64]	; 0x40
    28de:	601a      	str	r2, [r3, #0]
    28e0:	f04f 030a 	mov.w	r3, #10
    28e4:	653b      	str	r3, [r7, #80]	; 0x50
    28e6:	e026      	b.n	2936 <gc_read+0x176>
    28e8:	7d7b      	ldrb	r3, [r7, #21]
    28ea:	2b53      	cmp	r3, #83	; 0x53
    28ec:	d178      	bne.n	29e0 <gc_read+0x220>
    28ee:	6dfa      	ldr	r2, [r7, #92]	; 0x5c
    28f0:	7913      	ldrb	r3, [r2, #4]
    28f2:	f36f 1345 	bfc	r3, #5, #1
    28f6:	7113      	strb	r3, [r2, #4]
    28f8:	f107 0314 	add.w	r3, r7, #20
    28fc:	f103 0302 	add.w	r3, r3, #2
    2900:	4618      	mov	r0, r3
    2902:	f7ff fdd1 	bl	24a8 <ascii_pair_to_byte>
    2906:	4603      	mov	r3, r0
    2908:	b29b      	uxth	r3, r3
    290a:	ea4f 1303 	mov.w	r3, r3, lsl #4
    290e:	87fb      	strh	r3, [r7, #62]	; 0x3e
    2910:	f107 0314 	add.w	r3, r7, #20
    2914:	f103 0303 	add.w	r3, r3, #3
    2918:	4618      	mov	r0, r3
    291a:	f7ff fdc5 	bl	24a8 <ascii_pair_to_byte>
    291e:	4603      	mov	r3, r0
    2920:	b29a      	uxth	r2, r3
    2922:	8ffb      	ldrh	r3, [r7, #62]	; 0x3e
    2924:	4313      	orrs	r3, r2
    2926:	b29b      	uxth	r3, r3
    2928:	87fb      	strh	r3, [r7, #62]	; 0x3e
    292a:	8ffa      	ldrh	r2, [r7, #62]	; 0x3e
    292c:	6dfb      	ldr	r3, [r7, #92]	; 0x5c
    292e:	601a      	str	r2, [r3, #0]
    2930:	f04f 0305 	mov.w	r3, #5
    2934:	653b      	str	r3, [r7, #80]	; 0x50
    2936:	6d3b      	ldr	r3, [r7, #80]	; 0x50
    2938:	f107 0214 	add.w	r2, r7, #20
    293c:	18d3      	adds	r3, r2, r3
    293e:	781b      	ldrb	r3, [r3, #0]
    2940:	2b4e      	cmp	r3, #78	; 0x4e
    2942:	d105      	bne.n	2950 <gc_read+0x190>
    2944:	6dfa      	ldr	r2, [r7, #92]	; 0x5c
    2946:	7913      	ldrb	r3, [r2, #4]
    2948:	f36f 1304 	bfc	r3, #4, #1
    294c:	7113      	strb	r3, [r2, #4]
    294e:	e00b      	b.n	2968 <gc_read+0x1a8>
    2950:	6d3b      	ldr	r3, [r7, #80]	; 0x50
    2952:	f107 0214 	add.w	r2, r7, #20
    2956:	18d3      	adds	r3, r2, r3
    2958:	781b      	ldrb	r3, [r3, #0]
    295a:	2b52      	cmp	r3, #82	; 0x52
    295c:	d142      	bne.n	29e4 <gc_read+0x224>
    295e:	6dfa      	ldr	r2, [r7, #92]	; 0x5c
    2960:	7913      	ldrb	r3, [r2, #4]
    2962:	f043 0310 	orr.w	r3, r3, #16
    2966:	7113      	strb	r3, [r2, #4]
    2968:	6d3b      	ldr	r3, [r7, #80]	; 0x50
    296a:	f103 0301 	add.w	r3, r3, #1
    296e:	653b      	str	r3, [r7, #80]	; 0x50
    2970:	f04f 0300 	mov.w	r3, #0
    2974:	64fb      	str	r3, [r7, #76]	; 0x4c
    2976:	e014      	b.n	29a2 <gc_read+0x1e2>
    2978:	6d3b      	ldr	r3, [r7, #80]	; 0x50
    297a:	f107 0214 	add.w	r2, r7, #20
    297e:	18d3      	adds	r3, r2, r3
    2980:	4618      	mov	r0, r3
    2982:	f7ff fd91 	bl	24a8 <ascii_pair_to_byte>
    2986:	4603      	mov	r3, r0
    2988:	b2da      	uxtb	r2, r3
    298a:	6df9      	ldr	r1, [r7, #92]	; 0x5c
    298c:	6cfb      	ldr	r3, [r7, #76]	; 0x4c
    298e:	18cb      	adds	r3, r1, r3
    2990:	715a      	strb	r2, [r3, #5]
    2992:	6d3b      	ldr	r3, [r7, #80]	; 0x50
    2994:	f103 0302 	add.w	r3, r3, #2
    2998:	653b      	str	r3, [r7, #80]	; 0x50
    299a:	6cfb      	ldr	r3, [r7, #76]	; 0x4c
    299c:	f103 0301 	add.w	r3, r3, #1
    29a0:	64fb      	str	r3, [r7, #76]	; 0x4c
    29a2:	6d3b      	ldr	r3, [r7, #80]	; 0x50
    29a4:	f107 0214 	add.w	r2, r7, #20
    29a8:	18d3      	adds	r3, r2, r3
    29aa:	781b      	ldrb	r3, [r3, #0]
    29ac:	2b3b      	cmp	r3, #59	; 0x3b
    29ae:	d1e3      	bne.n	2978 <gc_read+0x1b8>
    29b0:	6cfb      	ldr	r3, [r7, #76]	; 0x4c
    29b2:	b2db      	uxtb	r3, r3
    29b4:	f003 030f 	and.w	r3, r3, #15
    29b8:	b2d9      	uxtb	r1, r3
    29ba:	6dfa      	ldr	r2, [r7, #92]	; 0x5c
    29bc:	7913      	ldrb	r3, [r2, #4]
    29be:	f361 0303 	bfi	r3, r1, #0, #4
    29c2:	7113      	strb	r3, [r2, #4]
    29c4:	6dfa      	ldr	r2, [r7, #92]	; 0x5c
    29c6:	7913      	ldrb	r3, [r2, #4]
    29c8:	f36f 1386 	bfc	r3, #6, #1
    29cc:	7113      	strb	r3, [r2, #4]
    29ce:	6dbb      	ldr	r3, [r7, #88]	; 0x58
    29d0:	f1a3 0310 	sub.w	r3, r3, #16
    29d4:	65bb      	str	r3, [r7, #88]	; 0x58
    29d6:	6dfb      	ldr	r3, [r7, #92]	; 0x5c
    29d8:	f103 0310 	add.w	r3, r3, #16
    29dc:	65fb      	str	r3, [r7, #92]	; 0x5c
    29de:	e002      	b.n	29e6 <gc_read+0x226>
    29e0:	bf00      	nop
    29e2:	e000      	b.n	29e6 <gc_read+0x226>
    29e4:	bf00      	nop
    29e6:	6dbb      	ldr	r3, [r7, #88]	; 0x58
    29e8:	2b00      	cmp	r3, #0
    29ea:	f47f af03 	bne.w	27f4 <gc_read+0x34>
    29ee:	687b      	ldr	r3, [r7, #4]
    29f0:	4618      	mov	r0, r3
    29f2:	f107 0760 	add.w	r7, r7, #96	; 0x60
    29f6:	46bd      	mov	sp, r7
    29f8:	bd80      	pop	{r7, pc}
    29fa:	bf00      	nop

000029fc <nmranet_gc_if_init>:
    29fc:	b580      	push	{r7, lr}
    29fe:	b086      	sub	sp, #24
    2a00:	af02      	add	r7, sp, #8
    2a02:	e9c7 0102 	strd	r0, r1, [r7, #8]
    2a06:	607a      	str	r2, [r7, #4]
    2a08:	f242 531d 	movw	r3, #9501	; 0x251d
    2a0c:	f2c0 0300 	movt	r3, #0
    2a10:	9300      	str	r3, [sp, #0]
    2a12:	e9d7 0102 	ldrd	r0, r1, [r7, #8]
    2a16:	687a      	ldr	r2, [r7, #4]
    2a18:	f242 73c1 	movw	r3, #10177	; 0x27c1
    2a1c:	f2c0 0300 	movt	r3, #0
    2a20:	f7ff fc4e 	bl	22c0 <nmranet_can_if_init>
    2a24:	4603      	mov	r3, r0
    2a26:	4618      	mov	r0, r3
    2a28:	f107 0710 	add.w	r7, r7, #16
    2a2c:	46bd      	mov	sp, r7
    2a2e:	bd80      	pop	{r7, pc}

00002a30 <os_mutex_lock>:
    2a30:	b580      	push	{r7, lr}
    2a32:	b082      	sub	sp, #8
    2a34:	af00      	add	r7, sp, #0
    2a36:	6078      	str	r0, [r7, #4]
    2a38:	f004 fe2a 	bl	7690 <vTaskSuspendAll>
    2a3c:	687b      	ldr	r3, [r7, #4]
    2a3e:	681b      	ldr	r3, [r3, #0]
    2a40:	2b00      	cmp	r3, #0
    2a42:	d112      	bne.n	2a6a <os_mutex_lock+0x3a>
    2a44:	687b      	ldr	r3, [r7, #4]
    2a46:	791b      	ldrb	r3, [r3, #4]
    2a48:	2b00      	cmp	r3, #0
    2a4a:	d007      	beq.n	2a5c <os_mutex_lock+0x2c>
    2a4c:	f04f 0004 	mov.w	r0, #4
    2a50:	f004 f846 	bl	6ae0 <xQueueCreateMutex>
    2a54:	4602      	mov	r2, r0
    2a56:	687b      	ldr	r3, [r7, #4]
    2a58:	601a      	str	r2, [r3, #0]
    2a5a:	e006      	b.n	2a6a <os_mutex_lock+0x3a>
    2a5c:	f04f 0001 	mov.w	r0, #1
    2a60:	f004 f83e 	bl	6ae0 <xQueueCreateMutex>
    2a64:	4602      	mov	r2, r0
    2a66:	687b      	ldr	r3, [r7, #4]
    2a68:	601a      	str	r2, [r3, #0]
    2a6a:	f004 fe23 	bl	76b4 <xTaskResumeAll>
    2a6e:	687b      	ldr	r3, [r7, #4]
    2a70:	791b      	ldrb	r3, [r3, #4]
    2a72:	2b00      	cmp	r3, #0
    2a74:	d007      	beq.n	2a86 <os_mutex_lock+0x56>
    2a76:	687b      	ldr	r3, [r7, #4]
    2a78:	681b      	ldr	r3, [r3, #0]
    2a7a:	4618      	mov	r0, r3
    2a7c:	f04f 31ff 	mov.w	r1, #4294967295
    2a80:	f004 f8a6 	bl	6bd0 <xQueueTakeMutexRecursive>
    2a84:	e00a      	b.n	2a9c <os_mutex_lock+0x6c>
    2a86:	687b      	ldr	r3, [r7, #4]
    2a88:	681b      	ldr	r3, [r3, #0]
    2a8a:	4618      	mov	r0, r3
    2a8c:	f04f 0100 	mov.w	r1, #0
    2a90:	f04f 32ff 	mov.w	r2, #4294967295
    2a94:	f04f 0300 	mov.w	r3, #0
    2a98:	f004 f9b8 	bl	6e0c <xQueueGenericReceive>
    2a9c:	f04f 0300 	mov.w	r3, #0
    2aa0:	4618      	mov	r0, r3
    2aa2:	f107 0708 	add.w	r7, r7, #8
    2aa6:	46bd      	mov	sp, r7
    2aa8:	bd80      	pop	{r7, pc}
    2aaa:	bf00      	nop

00002aac <os_mutex_unlock>:
    2aac:	b580      	push	{r7, lr}
    2aae:	b082      	sub	sp, #8
    2ab0:	af00      	add	r7, sp, #0
    2ab2:	6078      	str	r0, [r7, #4]
    2ab4:	687b      	ldr	r3, [r7, #4]
    2ab6:	791b      	ldrb	r3, [r3, #4]
    2ab8:	2b00      	cmp	r3, #0
    2aba:	d005      	beq.n	2ac8 <os_mutex_unlock+0x1c>
    2abc:	687b      	ldr	r3, [r7, #4]
    2abe:	681b      	ldr	r3, [r3, #0]
    2ac0:	4618      	mov	r0, r3
    2ac2:	f004 f859 	bl	6b78 <xQueueGiveMutexRecursive>
    2ac6:	e00a      	b.n	2ade <os_mutex_unlock+0x32>
    2ac8:	687b      	ldr	r3, [r7, #4]
    2aca:	681b      	ldr	r3, [r3, #0]
    2acc:	4618      	mov	r0, r3
    2ace:	f04f 0100 	mov.w	r1, #0
    2ad2:	f04f 0200 	mov.w	r2, #0
    2ad6:	f04f 0300 	mov.w	r3, #0
    2ada:	f004 f8c1 	bl	6c60 <xQueueGenericSend>
    2ade:	f04f 0300 	mov.w	r3, #0
    2ae2:	4618      	mov	r0, r3
    2ae4:	f107 0708 	add.w	r7, r7, #8
    2ae8:	46bd      	mov	sp, r7
    2aea:	bd80      	pop	{r7, pc}

00002aec <os_get_time_monotonic>:
    2aec:	b580      	push	{r7, lr}
    2aee:	b082      	sub	sp, #8
    2af0:	af00      	add	r7, sp, #0
    2af2:	f004 fe89 	bl	7808 <xTaskGetTickCount>
    2af6:	6078      	str	r0, [r7, #4]
    2af8:	6879      	ldr	r1, [r7, #4]
    2afa:	460a      	mov	r2, r1
    2afc:	f04f 0300 	mov.w	r3, #0
    2b00:	f244 2140 	movw	r1, #16960	; 0x4240
    2b04:	f2c0 010f 	movt	r1, #15
    2b08:	fb01 f003 	mul.w	r0, r1, r3
    2b0c:	f04f 0100 	mov.w	r1, #0
    2b10:	fb01 f102 	mul.w	r1, r1, r2
    2b14:	1840      	adds	r0, r0, r1
    2b16:	f244 2140 	movw	r1, #16960	; 0x4240
    2b1a:	f2c0 010f 	movt	r1, #15
    2b1e:	fba2 2301 	umull	r2, r3, r2, r1
    2b22:	18c1      	adds	r1, r0, r3
    2b24:	460b      	mov	r3, r1
    2b26:	4610      	mov	r0, r2
    2b28:	4619      	mov	r1, r3
    2b2a:	f107 0708 	add.w	r7, r7, #8
    2b2e:	46bd      	mov	sp, r7
    2b30:	bd80      	pop	{r7, pc}
    2b32:	bf00      	nop
    2b34:	b480      	push	{r7}
    2b36:	af00      	add	r7, sp, #0
    2b38:	46bd      	mov	sp, r7
    2b3a:	bc80      	pop	{r7}
    2b3c:	4770      	bx	lr
    2b3e:	bf00      	nop

00002b40 <os_thread_start>:
    2b40:	b580      	push	{r7, lr}
    2b42:	b084      	sub	sp, #16
    2b44:	af00      	add	r7, sp, #0
    2b46:	6078      	str	r0, [r7, #4]
    2b48:	687b      	ldr	r3, [r7, #4]
    2b4a:	60fb      	str	r3, [r7, #12]
    2b4c:	687b      	ldr	r3, [r7, #4]
    2b4e:	f04f 0000 	mov.w	r0, #0
    2b52:	4619      	mov	r1, r3
    2b54:	f004 ff8e 	bl	7a74 <vTaskSetApplicationTaskTag>
    2b58:	68fb      	ldr	r3, [r7, #12]
    2b5a:	681a      	ldr	r2, [r3, #0]
    2b5c:	f240 4380 	movw	r3, #1152	; 0x480
    2b60:	f2c2 0300 	movt	r3, #8192	; 0x2000
    2b64:	601a      	str	r2, [r3, #0]
    2b66:	68fb      	ldr	r3, [r7, #12]
    2b68:	685b      	ldr	r3, [r3, #4]
    2b6a:	68fa      	ldr	r2, [r7, #12]
    2b6c:	6892      	ldr	r2, [r2, #8]
    2b6e:	4610      	mov	r0, r2
    2b70:	4798      	blx	r3
    2b72:	f107 0710 	add.w	r7, r7, #16
    2b76:	46bd      	mov	sp, r7
    2b78:	bd80      	pop	{r7, pc}
    2b7a:	bf00      	nop

00002b7c <os_thread_once>:
    2b7c:	b580      	push	{r7, lr}
    2b7e:	b082      	sub	sp, #8
    2b80:	af00      	add	r7, sp, #0
    2b82:	6078      	str	r0, [r7, #4]
    2b84:	6039      	str	r1, [r7, #0]
    2b86:	f005 fb01 	bl	818c <xTaskGetSchedulerState>
    2b8a:	4603      	mov	r3, r0
    2b8c:	2b01      	cmp	r3, #1
    2b8e:	d139      	bne.n	2c04 <os_thread_once+0x88>
    2b90:	f241 1040 	movw	r0, #4416	; 0x1140
    2b94:	f2c2 0000 	movt	r0, #8192	; 0x2000
    2b98:	f7ff ff4a 	bl	2a30 <os_mutex_lock>
    2b9c:	687b      	ldr	r3, [r7, #4]
    2b9e:	781b      	ldrb	r3, [r3, #0]
    2ba0:	2b00      	cmp	r3, #0
    2ba2:	d123      	bne.n	2bec <os_thread_once+0x70>
    2ba4:	687b      	ldr	r3, [r7, #4]
    2ba6:	f04f 0201 	mov.w	r2, #1
    2baa:	701a      	strb	r2, [r3, #0]
    2bac:	f241 1040 	movw	r0, #4416	; 0x1140
    2bb0:	f2c2 0000 	movt	r0, #8192	; 0x2000
    2bb4:	f7ff ff7a 	bl	2aac <os_mutex_unlock>
    2bb8:	683b      	ldr	r3, [r7, #0]
    2bba:	4798      	blx	r3
    2bbc:	f241 1040 	movw	r0, #4416	; 0x1140
    2bc0:	f2c2 0000 	movt	r0, #8192	; 0x2000
    2bc4:	f7ff ff34 	bl	2a30 <os_mutex_lock>
    2bc8:	687b      	ldr	r3, [r7, #4]
    2bca:	f04f 0202 	mov.w	r2, #2
    2bce:	701a      	strb	r2, [r3, #0]
    2bd0:	e00c      	b.n	2bec <os_thread_once+0x70>
    2bd2:	f241 1040 	movw	r0, #4416	; 0x1140
    2bd6:	f2c2 0000 	movt	r0, #8192	; 0x2000
    2bda:	f7ff ff67 	bl	2aac <os_mutex_unlock>
    2bde:	f241 1040 	movw	r0, #4416	; 0x1140
    2be2:	f2c2 0000 	movt	r0, #8192	; 0x2000
    2be6:	f7ff ff23 	bl	2a30 <os_mutex_lock>
    2bea:	e000      	b.n	2bee <os_thread_once+0x72>
    2bec:	bf00      	nop
    2bee:	687b      	ldr	r3, [r7, #4]
    2bf0:	781b      	ldrb	r3, [r3, #0]
    2bf2:	2b01      	cmp	r3, #1
    2bf4:	d0ed      	beq.n	2bd2 <os_thread_once+0x56>
    2bf6:	f241 1040 	movw	r0, #4416	; 0x1140
    2bfa:	f2c2 0000 	movt	r0, #8192	; 0x2000
    2bfe:	f7ff ff55 	bl	2aac <os_mutex_unlock>
    2c02:	e00d      	b.n	2c20 <os_thread_once+0xa4>
    2c04:	687b      	ldr	r3, [r7, #4]
    2c06:	781b      	ldrb	r3, [r3, #0]
    2c08:	2b00      	cmp	r3, #0
    2c0a:	d109      	bne.n	2c20 <os_thread_once+0xa4>
    2c0c:	687b      	ldr	r3, [r7, #4]
    2c0e:	f04f 0201 	mov.w	r2, #1
    2c12:	701a      	strb	r2, [r3, #0]
    2c14:	683b      	ldr	r3, [r7, #0]
    2c16:	4798      	blx	r3
    2c18:	687b      	ldr	r3, [r7, #4]
    2c1a:	f04f 0202 	mov.w	r2, #2
    2c1e:	701a      	strb	r2, [r3, #0]
    2c20:	f04f 0300 	mov.w	r3, #0
    2c24:	4618      	mov	r0, r3
    2c26:	f107 0708 	add.w	r7, r7, #8
    2c2a:	46bd      	mov	sp, r7
    2c2c:	bd80      	pop	{r7, pc}
    2c2e:	bf00      	nop

00002c30 <timer_callback>:
    2c30:	b580      	push	{r7, lr}
    2c32:	b08e      	sub	sp, #56	; 0x38
    2c34:	af02      	add	r7, sp, #8
    2c36:	6078      	str	r0, [r7, #4]
    2c38:	f240 4380 	movw	r3, #1152	; 0x480
    2c3c:	f2c2 0300 	movt	r3, #8192	; 0x2000
    2c40:	f240 22ac 	movw	r2, #684	; 0x2ac
    2c44:	f2c2 0200 	movt	r2, #8192	; 0x2000
    2c48:	601a      	str	r2, [r3, #0]
    2c4a:	6878      	ldr	r0, [r7, #4]
    2c4c:	f005 fe9e 	bl	898c <pvTimerGetTimerID>
    2c50:	62f8      	str	r0, [r7, #44]	; 0x2c
    2c52:	6afb      	ldr	r3, [r7, #44]	; 0x2c
    2c54:	681b      	ldr	r3, [r3, #0]
    2c56:	6afa      	ldr	r2, [r7, #44]	; 0x2c
    2c58:	6851      	ldr	r1, [r2, #4]
    2c5a:	6afa      	ldr	r2, [r7, #44]	; 0x2c
    2c5c:	6892      	ldr	r2, [r2, #8]
    2c5e:	4608      	mov	r0, r1
    2c60:	4611      	mov	r1, r2
    2c62:	4798      	blx	r3
    2c64:	e9c7 0108 	strd	r0, r1, [r7, #32]
    2c68:	e9d7 2308 	ldrd	r2, r3, [r7, #32]
    2c6c:	ea52 0103 	orrs.w	r1, r2, r3
    2c70:	d056      	beq.n	2d20 <timer_callback+0xf0>
    2c72:	f04f 0001 	mov.w	r0, #1
    2c76:	f04f 0100 	mov.w	r1, #0
    2c7a:	ea82 0200 	eor.w	r2, r2, r0
    2c7e:	ea83 0301 	eor.w	r3, r3, r1
    2c82:	ea52 0103 	orrs.w	r1, r2, r3
    2c86:	d004      	beq.n	2c92 <timer_callback+0x62>
    2c88:	6af9      	ldr	r1, [r7, #44]	; 0x2c
    2c8a:	e9d7 2308 	ldrd	r2, r3, [r7, #32]
    2c8e:	e9c1 2306 	strd	r2, r3, [r1, #24]
    2c92:	6afb      	ldr	r3, [r7, #44]	; 0x2c
    2c94:	e9d3 0104 	ldrd	r0, r1, [r3, #16]
    2c98:	6afb      	ldr	r3, [r7, #44]	; 0x2c
    2c9a:	e9d3 2306 	ldrd	r2, r3, [r3, #24]
    2c9e:	1812      	adds	r2, r2, r0
    2ca0:	eb43 0301 	adc.w	r3, r3, r1
    2ca4:	6af9      	ldr	r1, [r7, #44]	; 0x2c
    2ca6:	e9c1 2304 	strd	r2, r3, [r1, #16]
    2caa:	bf00      	nop
    2cac:	f7ff ff1e 	bl	2aec <os_get_time_monotonic>
    2cb0:	e9c7 0106 	strd	r0, r1, [r7, #24]
    2cb4:	6afb      	ldr	r3, [r7, #44]	; 0x2c
    2cb6:	e9d3 2304 	ldrd	r2, r3, [r3, #16]
    2cba:	e9d7 0106 	ldrd	r0, r1, [r7, #24]
    2cbe:	1a82      	subs	r2, r0, r2
    2cc0:	eb61 0303 	sbc.w	r3, r1, r3
    2cc4:	e9c7 2304 	strd	r2, r3, [r7, #16]
    2cc8:	697b      	ldr	r3, [r7, #20]
    2cca:	f44f 727a 	mov.w	r2, #1000	; 0x3e8
    2cce:	fb02 f203 	mul.w	r2, r2, r3
    2cd2:	693b      	ldr	r3, [r7, #16]
    2cd4:	f04f 0100 	mov.w	r1, #0
    2cd8:	fb01 f303 	mul.w	r3, r1, r3
    2cdc:	18d1      	adds	r1, r2, r3
    2cde:	693a      	ldr	r2, [r7, #16]
    2ce0:	f44f 737a 	mov.w	r3, #1000	; 0x3e8
    2ce4:	fba2 2303 	umull	r2, r3, r2, r3
    2ce8:	18c9      	adds	r1, r1, r3
    2cea:	460b      	mov	r3, r1
    2cec:	4610      	mov	r0, r2
    2cee:	4619      	mov	r1, r3
    2cf0:	a30f      	add	r3, pc, #60	; (adr r3, 2d30 <timer_callback+0x100>)
    2cf2:	e9d3 2300 	ldrd	r2, r3, [r3]
    2cf6:	f00d fc99 	bl	1062c <__aeabi_ldivmod>
    2cfa:	4602      	mov	r2, r0
    2cfc:	460b      	mov	r3, r1
    2cfe:	4613      	mov	r3, r2
    2d00:	60fb      	str	r3, [r7, #12]
    2d02:	68fb      	ldr	r3, [r7, #12]
    2d04:	2b00      	cmp	r3, #0
    2d06:	d0a4      	beq.n	2c52 <timer_callback+0x22>
    2d08:	f04f 33ff 	mov.w	r3, #4294967295
    2d0c:	9300      	str	r3, [sp, #0]
    2d0e:	6878      	ldr	r0, [r7, #4]
    2d10:	f04f 0102 	mov.w	r1, #2
    2d14:	68fa      	ldr	r2, [r7, #12]
    2d16:	f04f 0300 	mov.w	r3, #0
    2d1a:	f005 fb79 	bl	8410 <xTimerGenericCommand>
    2d1e:	e000      	b.n	2d22 <timer_callback+0xf2>
    2d20:	bf00      	nop
    2d22:	f107 0730 	add.w	r7, r7, #48	; 0x30
    2d26:	46bd      	mov	sp, r7
    2d28:	bd80      	pop	{r7, pc}
    2d2a:	bf00      	nop
    2d2c:	f3af 8000 	nop.w
    2d30:	3b9aca00 	.word	0x3b9aca00
    2d34:	00000000 	.word	0x00000000

00002d38 <os_timer_create>:
    2d38:	b580      	push	{r7, lr}
    2d3a:	b088      	sub	sp, #32
    2d3c:	af02      	add	r7, sp, #8
    2d3e:	60f8      	str	r0, [r7, #12]
    2d40:	60b9      	str	r1, [r7, #8]
    2d42:	607a      	str	r2, [r7, #4]
    2d44:	68fb      	ldr	r3, [r7, #12]
    2d46:	2b00      	cmp	r3, #0
    2d48:	d101      	bne.n	2d4e <os_timer_create+0x16>
    2d4a:	f000 fa51 	bl	31f0 <abort>
    2d4e:	f04f 0020 	mov.w	r0, #32
    2d52:	f00e fa87 	bl	11264 <malloc>
    2d56:	6178      	str	r0, [r7, #20]
    2d58:	697b      	ldr	r3, [r7, #20]
    2d5a:	68fa      	ldr	r2, [r7, #12]
    2d5c:	601a      	str	r2, [r3, #0]
    2d5e:	697b      	ldr	r3, [r7, #20]
    2d60:	68ba      	ldr	r2, [r7, #8]
    2d62:	605a      	str	r2, [r3, #4]
    2d64:	697b      	ldr	r3, [r7, #20]
    2d66:	687a      	ldr	r2, [r7, #4]
    2d68:	609a      	str	r2, [r3, #8]
    2d6a:	6979      	ldr	r1, [r7, #20]
    2d6c:	f04f 0200 	mov.w	r2, #0
    2d70:	f04f 0300 	mov.w	r3, #0
    2d74:	e9c1 2306 	strd	r2, r3, [r1, #24]
    2d78:	f642 4331 	movw	r3, #11313	; 0x2c31
    2d7c:	f2c0 0300 	movt	r3, #0
    2d80:	9300      	str	r3, [sp, #0]
    2d82:	f04f 0000 	mov.w	r0, #0
    2d86:	f04f 31ff 	mov.w	r1, #4294967295
    2d8a:	f04f 0200 	mov.w	r2, #0
    2d8e:	697b      	ldr	r3, [r7, #20]
    2d90:	f005 fb0a 	bl	83a8 <xTimerCreate>
    2d94:	4603      	mov	r3, r0
    2d96:	4618      	mov	r0, r3
    2d98:	f107 0718 	add.w	r7, r7, #24
    2d9c:	46bd      	mov	sp, r7
    2d9e:	bd80      	pop	{r7, pc}

00002da0 <os_timer_delete>:
    2da0:	b580      	push	{r7, lr}
    2da2:	b086      	sub	sp, #24
    2da4:	af02      	add	r7, sp, #8
    2da6:	6078      	str	r0, [r7, #4]
    2da8:	687b      	ldr	r3, [r7, #4]
    2daa:	2b00      	cmp	r3, #0
    2dac:	d101      	bne.n	2db2 <os_timer_delete+0x12>
    2dae:	f000 fa1f 	bl	31f0 <abort>
    2db2:	6878      	ldr	r0, [r7, #4]
    2db4:	f005 fdea 	bl	898c <pvTimerGetTimerID>
    2db8:	60f8      	str	r0, [r7, #12]
    2dba:	f04f 33ff 	mov.w	r3, #4294967295
    2dbe:	9300      	str	r3, [sp, #0]
    2dc0:	6878      	ldr	r0, [r7, #4]
    2dc2:	f04f 0103 	mov.w	r1, #3
    2dc6:	f04f 0200 	mov.w	r2, #0
    2dca:	f04f 0300 	mov.w	r3, #0
    2dce:	f005 fb1f 	bl	8410 <xTimerGenericCommand>
    2dd2:	68f8      	ldr	r0, [r7, #12]
    2dd4:	f00e fa4e 	bl	11274 <free>
    2dd8:	f107 0710 	add.w	r7, r7, #16
    2ddc:	46bd      	mov	sp, r7
    2dde:	bd80      	pop	{r7, pc}

00002de0 <os_timer_start>:
    2de0:	b580      	push	{r7, lr}
    2de2:	b08c      	sub	sp, #48	; 0x30
    2de4:	af02      	add	r7, sp, #8
    2de6:	60f8      	str	r0, [r7, #12]
    2de8:	e9c7 2300 	strd	r2, r3, [r7]
    2dec:	68fb      	ldr	r3, [r7, #12]
    2dee:	2b00      	cmp	r3, #0
    2df0:	d101      	bne.n	2df6 <os_timer_start+0x16>
    2df2:	f000 f9fd 	bl	31f0 <abort>
    2df6:	68fb      	ldr	r3, [r7, #12]
    2df8:	627b      	str	r3, [r7, #36]	; 0x24
    2dfa:	f7ff fe77 	bl	2aec <os_get_time_monotonic>
    2dfe:	e9c7 0106 	strd	r0, r1, [r7, #24]
    2e02:	e9d7 0106 	ldrd	r0, r1, [r7, #24]
    2e06:	e9d7 2300 	ldrd	r2, r3, [r7]
    2e0a:	1812      	adds	r2, r2, r0
    2e0c:	eb43 0301 	adc.w	r3, r3, r1
    2e10:	6a79      	ldr	r1, [r7, #36]	; 0x24
    2e12:	e9c1 2304 	strd	r2, r3, [r1, #16]
    2e16:	6a79      	ldr	r1, [r7, #36]	; 0x24
    2e18:	e9d7 2300 	ldrd	r2, r3, [r7]
    2e1c:	e9c1 2306 	strd	r2, r3, [r1, #24]
    2e20:	687b      	ldr	r3, [r7, #4]
    2e22:	f44f 727a 	mov.w	r2, #1000	; 0x3e8
    2e26:	fb02 f203 	mul.w	r2, r2, r3
    2e2a:	683b      	ldr	r3, [r7, #0]
    2e2c:	f04f 0100 	mov.w	r1, #0
    2e30:	fb01 f303 	mul.w	r3, r1, r3
    2e34:	18d1      	adds	r1, r2, r3
    2e36:	683a      	ldr	r2, [r7, #0]
    2e38:	f44f 737a 	mov.w	r3, #1000	; 0x3e8
    2e3c:	fba2 2303 	umull	r2, r3, r2, r3
    2e40:	18c9      	adds	r1, r1, r3
    2e42:	460b      	mov	r3, r1
    2e44:	4610      	mov	r0, r2
    2e46:	4619      	mov	r1, r3
    2e48:	a313      	add	r3, pc, #76	; (adr r3, 2e98 <os_timer_start+0xb8>)
    2e4a:	e9d3 2300 	ldrd	r2, r3, [r3]
    2e4e:	f00d fbed 	bl	1062c <__aeabi_ldivmod>
    2e52:	4602      	mov	r2, r0
    2e54:	460b      	mov	r3, r1
    2e56:	4613      	mov	r3, r2
    2e58:	617b      	str	r3, [r7, #20]
    2e5a:	f04f 33ff 	mov.w	r3, #4294967295
    2e5e:	9300      	str	r3, [sp, #0]
    2e60:	68f8      	ldr	r0, [r7, #12]
    2e62:	f04f 0102 	mov.w	r1, #2
    2e66:	697a      	ldr	r2, [r7, #20]
    2e68:	f04f 0300 	mov.w	r3, #0
    2e6c:	f005 fad0 	bl	8410 <xTimerGenericCommand>
    2e70:	f004 fcca 	bl	7808 <xTaskGetTickCount>
    2e74:	4603      	mov	r3, r0
    2e76:	f04f 32ff 	mov.w	r2, #4294967295
    2e7a:	9200      	str	r2, [sp, #0]
    2e7c:	68f8      	ldr	r0, [r7, #12]
    2e7e:	f04f 0100 	mov.w	r1, #0
    2e82:	461a      	mov	r2, r3
    2e84:	f04f 0300 	mov.w	r3, #0
    2e88:	f005 fac2 	bl	8410 <xTimerGenericCommand>
    2e8c:	f107 0728 	add.w	r7, r7, #40	; 0x28
    2e90:	46bd      	mov	sp, r7
    2e92:	bd80      	pop	{r7, pc}
    2e94:	f3af 8000 	nop.w
    2e98:	3b9aca00 	.word	0x3b9aca00
    2e9c:	00000000 	.word	0x00000000

00002ea0 <os_timer_stop>:
    2ea0:	b580      	push	{r7, lr}
    2ea2:	b084      	sub	sp, #16
    2ea4:	af02      	add	r7, sp, #8
    2ea6:	6078      	str	r0, [r7, #4]
    2ea8:	687b      	ldr	r3, [r7, #4]
    2eaa:	2b00      	cmp	r3, #0
    2eac:	d101      	bne.n	2eb2 <os_timer_stop+0x12>
    2eae:	f000 f99f 	bl	31f0 <abort>
    2eb2:	f04f 33ff 	mov.w	r3, #4294967295
    2eb6:	9300      	str	r3, [sp, #0]
    2eb8:	6878      	ldr	r0, [r7, #4]
    2eba:	f04f 0101 	mov.w	r1, #1
    2ebe:	f04f 0200 	mov.w	r2, #0
    2ec2:	f04f 0300 	mov.w	r3, #0
    2ec6:	f005 faa3 	bl	8410 <xTimerGenericCommand>
    2eca:	f107 0708 	add.w	r7, r7, #8
    2ece:	46bd      	mov	sp, r7
    2ed0:	bd80      	pop	{r7, pc}
    2ed2:	bf00      	nop

00002ed4 <os_thread_create>:
    2ed4:	b580      	push	{r7, lr}
    2ed6:	b090      	sub	sp, #64	; 0x40
    2ed8:	af04      	add	r7, sp, #16
    2eda:	60f8      	str	r0, [r7, #12]
    2edc:	60b9      	str	r1, [r7, #8]
    2ede:	607a      	str	r2, [r7, #4]
    2ee0:	603b      	str	r3, [r7, #0]
    2ee2:	f04f 000c 	mov.w	r0, #12
    2ee6:	f00e f9bd 	bl	11264 <malloc>
    2eea:	62b8      	str	r0, [r7, #40]	; 0x28
    2eec:	f107 0318 	add.w	r3, r7, #24
    2ef0:	4618      	mov	r0, r3
    2ef2:	f647 4164 	movw	r1, #31844	; 0x7c64
    2ef6:	f2c0 0101 	movt	r1, #1
    2efa:	f00e fed5 	bl	11ca8 <strcpy>
    2efe:	f04f 0300 	mov.w	r3, #0
    2f02:	f887 3021 	strb.w	r3, [r7, #33]	; 0x21
    2f06:	f241 134c 	movw	r3, #4428	; 0x114c
    2f0a:	f2c2 0300 	movt	r3, #8192	; 0x2000
    2f0e:	6819      	ldr	r1, [r3, #0]
    2f10:	f64c 43cd 	movw	r3, #52429	; 0xcccd
    2f14:	f6cc 43cc 	movt	r3, #52428	; 0xcccc
    2f18:	fba3 2301 	umull	r2, r3, r3, r1
    2f1c:	ea4f 02d3 	mov.w	r2, r3, lsr #3
    2f20:	4613      	mov	r3, r2
    2f22:	ea4f 0383 	mov.w	r3, r3, lsl #2
    2f26:	189b      	adds	r3, r3, r2
    2f28:	ea4f 0343 	mov.w	r3, r3, lsl #1
    2f2c:	1aca      	subs	r2, r1, r3
    2f2e:	b2d3      	uxtb	r3, r2
    2f30:	f103 0330 	add.w	r3, r3, #48	; 0x30
    2f34:	b2db      	uxtb	r3, r3
    2f36:	f887 3020 	strb.w	r3, [r7, #32]
    2f3a:	f241 134c 	movw	r3, #4428	; 0x114c
    2f3e:	f2c2 0300 	movt	r3, #8192	; 0x2000
    2f42:	681a      	ldr	r2, [r3, #0]
    2f44:	f64c 43cd 	movw	r3, #52429	; 0xcccd
    2f48:	f6cc 43cc 	movt	r3, #52428	; 0xcccc
    2f4c:	fba3 1302 	umull	r1, r3, r3, r2
    2f50:	ea4f 03d3 	mov.w	r3, r3, lsr #3
    2f54:	b2db      	uxtb	r3, r3
    2f56:	f103 0330 	add.w	r3, r3, #48	; 0x30
    2f5a:	b2db      	uxtb	r3, r3
    2f5c:	77fb      	strb	r3, [r7, #31]
    2f5e:	f04f 00f0 	mov.w	r0, #240	; 0xf0
    2f62:	f00e f97f 	bl	11264 <malloc>
    2f66:	4602      	mov	r2, r0
    2f68:	6abb      	ldr	r3, [r7, #40]	; 0x28
    2f6a:	601a      	str	r2, [r3, #0]
    2f6c:	6abb      	ldr	r3, [r7, #40]	; 0x28
    2f6e:	683a      	ldr	r2, [r7, #0]
    2f70:	605a      	str	r2, [r3, #4]
    2f72:	6abb      	ldr	r3, [r7, #40]	; 0x28
    2f74:	6bba      	ldr	r2, [r7, #56]	; 0x38
    2f76:	609a      	str	r2, [r3, #8]
    2f78:	6abb      	ldr	r3, [r7, #40]	; 0x28
    2f7a:	681a      	ldr	r2, [r3, #0]
    2f7c:	f248 2330 	movw	r3, #33328	; 0x8230
    2f80:	f2c0 0301 	movt	r3, #1
    2f84:	6053      	str	r3, [r2, #4]
    2f86:	6abb      	ldr	r3, [r7, #40]	; 0x28
    2f88:	681a      	ldr	r2, [r3, #0]
    2f8a:	f248 2310 	movw	r3, #33296	; 0x8210
    2f8e:	f2c0 0301 	movt	r3, #1
    2f92:	6093      	str	r3, [r2, #8]
    2f94:	6abb      	ldr	r3, [r7, #40]	; 0x28
    2f96:	681a      	ldr	r2, [r3, #0]
    2f98:	f248 13f0 	movw	r3, #33264	; 0x81f0
    2f9c:	f2c0 0301 	movt	r3, #1
    2fa0:	60d3      	str	r3, [r2, #12]
    2fa2:	6abb      	ldr	r3, [r7, #40]	; 0x28
    2fa4:	681b      	ldr	r3, [r3, #0]
    2fa6:	f04f 0200 	mov.w	r2, #0
    2faa:	601a      	str	r2, [r3, #0]
    2fac:	6abb      	ldr	r3, [r7, #40]	; 0x28
    2fae:	681b      	ldr	r3, [r3, #0]
    2fb0:	f04f 0200 	mov.w	r2, #0
    2fb4:	611a      	str	r2, [r3, #16]
    2fb6:	6abb      	ldr	r3, [r7, #40]	; 0x28
    2fb8:	681b      	ldr	r3, [r3, #0]
    2fba:	f04f 0200 	mov.w	r2, #0
    2fbe:	615a      	str	r2, [r3, #20]
    2fc0:	6abb      	ldr	r3, [r7, #40]	; 0x28
    2fc2:	681b      	ldr	r3, [r3, #0]
    2fc4:	f04f 0200 	mov.w	r2, #0
    2fc8:	619a      	str	r2, [r3, #24]
    2fca:	6abb      	ldr	r3, [r7, #40]	; 0x28
    2fcc:	681b      	ldr	r3, [r3, #0]
    2fce:	f04f 0200 	mov.w	r2, #0
    2fd2:	61da      	str	r2, [r3, #28]
    2fd4:	6abb      	ldr	r3, [r7, #40]	; 0x28
    2fd6:	681a      	ldr	r2, [r3, #0]
    2fd8:	f647 4360 	movw	r3, #31840	; 0x7c60
    2fdc:	f2c0 0301 	movt	r3, #1
    2fe0:	6213      	str	r3, [r2, #32]
    2fe2:	6abb      	ldr	r3, [r7, #40]	; 0x28
    2fe4:	681b      	ldr	r3, [r3, #0]
    2fe6:	f04f 0200 	mov.w	r2, #0
    2fea:	625a      	str	r2, [r3, #36]	; 0x24
    2fec:	6abb      	ldr	r3, [r7, #40]	; 0x28
    2fee:	681b      	ldr	r3, [r3, #0]
    2ff0:	f04f 0200 	mov.w	r2, #0
    2ff4:	629a      	str	r2, [r3, #40]	; 0x28
    2ff6:	6abb      	ldr	r3, [r7, #40]	; 0x28
    2ff8:	681b      	ldr	r3, [r3, #0]
    2ffa:	f04f 0200 	mov.w	r2, #0
    2ffe:	62da      	str	r2, [r3, #44]	; 0x2c
    3000:	6abb      	ldr	r3, [r7, #40]	; 0x28
    3002:	681b      	ldr	r3, [r3, #0]
    3004:	f04f 0200 	mov.w	r2, #0
    3008:	631a      	str	r2, [r3, #48]	; 0x30
    300a:	6abb      	ldr	r3, [r7, #40]	; 0x28
    300c:	681b      	ldr	r3, [r3, #0]
    300e:	f04f 0200 	mov.w	r2, #0
    3012:	635a      	str	r2, [r3, #52]	; 0x34
    3014:	6abb      	ldr	r3, [r7, #40]	; 0x28
    3016:	681b      	ldr	r3, [r3, #0]
    3018:	f04f 0200 	mov.w	r2, #0
    301c:	639a      	str	r2, [r3, #56]	; 0x38
    301e:	6abb      	ldr	r3, [r7, #40]	; 0x28
    3020:	681b      	ldr	r3, [r3, #0]
    3022:	f04f 0200 	mov.w	r2, #0
    3026:	63da      	str	r2, [r3, #60]	; 0x3c
    3028:	6abb      	ldr	r3, [r7, #40]	; 0x28
    302a:	681b      	ldr	r3, [r3, #0]
    302c:	f04f 0200 	mov.w	r2, #0
    3030:	641a      	str	r2, [r3, #64]	; 0x40
    3032:	6abb      	ldr	r3, [r7, #40]	; 0x28
    3034:	681b      	ldr	r3, [r3, #0]
    3036:	f04f 0200 	mov.w	r2, #0
    303a:	645a      	str	r2, [r3, #68]	; 0x44
    303c:	6abb      	ldr	r3, [r7, #40]	; 0x28
    303e:	681b      	ldr	r3, [r3, #0]
    3040:	f04f 0200 	mov.w	r2, #0
    3044:	649a      	str	r2, [r3, #72]	; 0x48
    3046:	6abb      	ldr	r3, [r7, #40]	; 0x28
    3048:	681b      	ldr	r3, [r3, #0]
    304a:	f04f 0200 	mov.w	r2, #0
    304e:	64da      	str	r2, [r3, #76]	; 0x4c
    3050:	6abb      	ldr	r3, [r7, #40]	; 0x28
    3052:	681b      	ldr	r3, [r3, #0]
    3054:	f04f 0200 	mov.w	r2, #0
    3058:	651a      	str	r2, [r3, #80]	; 0x50
    305a:	6abb      	ldr	r3, [r7, #40]	; 0x28
    305c:	681b      	ldr	r3, [r3, #0]
    305e:	f04f 0200 	mov.w	r2, #0
    3062:	655a      	str	r2, [r3, #84]	; 0x54
    3064:	6abb      	ldr	r3, [r7, #40]	; 0x28
    3066:	681b      	ldr	r3, [r3, #0]
    3068:	f04f 0200 	mov.w	r2, #0
    306c:	f8c3 20d4 	str.w	r2, [r3, #212]	; 0xd4
    3070:	6abb      	ldr	r3, [r7, #40]	; 0x28
    3072:	681b      	ldr	r3, [r3, #0]
    3074:	f04f 0200 	mov.w	r2, #0
    3078:	f8c3 20d8 	str.w	r2, [r3, #216]	; 0xd8
    307c:	6abb      	ldr	r3, [r7, #40]	; 0x28
    307e:	681b      	ldr	r3, [r3, #0]
    3080:	f04f 0200 	mov.w	r2, #0
    3084:	f8c3 20dc 	str.w	r2, [r3, #220]	; 0xdc
    3088:	6abb      	ldr	r3, [r7, #40]	; 0x28
    308a:	681b      	ldr	r3, [r3, #0]
    308c:	f04f 0200 	mov.w	r2, #0
    3090:	f8c3 20e0 	str.w	r2, [r3, #224]	; 0xe0
    3094:	6abb      	ldr	r3, [r7, #40]	; 0x28
    3096:	681b      	ldr	r3, [r3, #0]
    3098:	f04f 0200 	mov.w	r2, #0
    309c:	f8c3 20e4 	str.w	r2, [r3, #228]	; 0xe4
    30a0:	6abb      	ldr	r3, [r7, #40]	; 0x28
    30a2:	681b      	ldr	r3, [r3, #0]
    30a4:	f04f 0200 	mov.w	r2, #0
    30a8:	f8c3 20e8 	str.w	r2, [r3, #232]	; 0xe8
    30ac:	6abb      	ldr	r3, [r7, #40]	; 0x28
    30ae:	681b      	ldr	r3, [r3, #0]
    30b0:	f04f 0200 	mov.w	r2, #0
    30b4:	f8c3 20ec 	str.w	r2, [r3, #236]	; 0xec
    30b8:	68bb      	ldr	r3, [r7, #8]
    30ba:	2b00      	cmp	r3, #0
    30bc:	d103      	bne.n	30c6 <os_thread_create+0x1f2>
    30be:	f04f 0302 	mov.w	r3, #2
    30c2:	60bb      	str	r3, [r7, #8]
    30c4:	e003      	b.n	30ce <os_thread_create+0x1fa>
    30c6:	68bb      	ldr	r3, [r7, #8]
    30c8:	f1c3 0305 	rsb	r3, r3, #5
    30cc:	60bb      	str	r3, [r7, #8]
    30ce:	f241 1330 	movw	r3, #4400	; 0x1130
    30d2:	f2c2 0300 	movt	r3, #8192	; 0x2000
    30d6:	62fb      	str	r3, [r7, #44]	; 0x2c
    30d8:	f004 fada 	bl	7690 <vTaskSuspendAll>
    30dc:	e002      	b.n	30e4 <os_thread_create+0x210>
    30de:	6afb      	ldr	r3, [r7, #44]	; 0x2c
    30e0:	68db      	ldr	r3, [r3, #12]
    30e2:	62fb      	str	r3, [r7, #44]	; 0x2c
    30e4:	6afb      	ldr	r3, [r7, #44]	; 0x2c
    30e6:	68db      	ldr	r3, [r3, #12]
    30e8:	2b00      	cmp	r3, #0
    30ea:	d1f8      	bne.n	30de <os_thread_create+0x20a>
    30ec:	f04f 0010 	mov.w	r0, #16
    30f0:	f00e f8b8 	bl	11264 <malloc>
    30f4:	6278      	str	r0, [r7, #36]	; 0x24
    30f6:	6a7b      	ldr	r3, [r7, #36]	; 0x24
    30f8:	f04f 0200 	mov.w	r2, #0
    30fc:	601a      	str	r2, [r3, #0]
    30fe:	6a7b      	ldr	r3, [r7, #36]	; 0x24
    3100:	f04f 0200 	mov.w	r2, #0
    3104:	60da      	str	r2, [r3, #12]
    3106:	6a7b      	ldr	r3, [r7, #36]	; 0x24
    3108:	687a      	ldr	r2, [r7, #4]
    310a:	609a      	str	r2, [r3, #8]
    310c:	6afb      	ldr	r3, [r7, #44]	; 0x2c
    310e:	6a7a      	ldr	r2, [r7, #36]	; 0x24
    3110:	60da      	str	r2, [r3, #12]
    3112:	f004 facf 	bl	76b4 <xTaskResumeAll>
    3116:	68fb      	ldr	r3, [r7, #12]
    3118:	2b00      	cmp	r3, #0
    311a:	d01d      	beq.n	3158 <os_thread_create+0x284>
    311c:	687b      	ldr	r3, [r7, #4]
    311e:	ea4f 0393 	mov.w	r3, r3, lsr #2
    3122:	b29b      	uxth	r3, r3
    3124:	68ba      	ldr	r2, [r7, #8]
    3126:	9200      	str	r2, [sp, #0]
    3128:	68fa      	ldr	r2, [r7, #12]
    312a:	9201      	str	r2, [sp, #4]
    312c:	f04f 0200 	mov.w	r2, #0
    3130:	9202      	str	r2, [sp, #8]
    3132:	f04f 0200 	mov.w	r2, #0
    3136:	9203      	str	r2, [sp, #12]
    3138:	f642 3041 	movw	r0, #11073	; 0x2b41
    313c:	f2c0 0000 	movt	r0, #0
    3140:	f107 0218 	add.w	r2, r7, #24
    3144:	4611      	mov	r1, r2
    3146:	461a      	mov	r2, r3
    3148:	6abb      	ldr	r3, [r7, #40]	; 0x28
    314a:	f004 f8f7 	bl	733c <xTaskGenericCreate>
    314e:	68fb      	ldr	r3, [r7, #12]
    3150:	681a      	ldr	r2, [r3, #0]
    3152:	6a7b      	ldr	r3, [r7, #36]	; 0x24
    3154:	601a      	str	r2, [r3, #0]
    3156:	e01c      	b.n	3192 <os_thread_create+0x2be>
    3158:	687b      	ldr	r3, [r7, #4]
    315a:	ea4f 0393 	mov.w	r3, r3, lsr #2
    315e:	b29b      	uxth	r3, r3
    3160:	68ba      	ldr	r2, [r7, #8]
    3162:	9200      	str	r2, [sp, #0]
    3164:	f107 0214 	add.w	r2, r7, #20
    3168:	9201      	str	r2, [sp, #4]
    316a:	f04f 0200 	mov.w	r2, #0
    316e:	9202      	str	r2, [sp, #8]
    3170:	f04f 0200 	mov.w	r2, #0
    3174:	9203      	str	r2, [sp, #12]
    3176:	f642 3041 	movw	r0, #11073	; 0x2b41
    317a:	f2c0 0000 	movt	r0, #0
    317e:	f107 0218 	add.w	r2, r7, #24
    3182:	4611      	mov	r1, r2
    3184:	461a      	mov	r2, r3
    3186:	6abb      	ldr	r3, [r7, #40]	; 0x28
    3188:	f004 f8d8 	bl	733c <xTaskGenericCreate>
    318c:	697a      	ldr	r2, [r7, #20]
    318e:	6a7b      	ldr	r3, [r7, #36]	; 0x24
    3190:	601a      	str	r2, [r3, #0]
    3192:	f04f 0300 	mov.w	r3, #0
    3196:	4618      	mov	r0, r3
    3198:	f107 0730 	add.w	r7, r7, #48	; 0x30
    319c:	46bd      	mov	sp, r7
    319e:	bd80      	pop	{r7, pc}

000031a0 <__malloc_lock>:
    31a0:	b580      	push	{r7, lr}
    31a2:	af00      	add	r7, sp, #0
    31a4:	f004 fff2 	bl	818c <xTaskGetSchedulerState>
    31a8:	4603      	mov	r3, r0
    31aa:	2b00      	cmp	r3, #0
    31ac:	d001      	beq.n	31b2 <__malloc_lock+0x12>
    31ae:	f004 fa6f 	bl	7690 <vTaskSuspendAll>
    31b2:	bd80      	pop	{r7, pc}

000031b4 <__malloc_unlock>:
    31b4:	b580      	push	{r7, lr}
    31b6:	af00      	add	r7, sp, #0
    31b8:	f004 ffe8 	bl	818c <xTaskGetSchedulerState>
    31bc:	4603      	mov	r3, r0
    31be:	2b00      	cmp	r3, #0
    31c0:	d001      	beq.n	31c6 <__malloc_unlock+0x12>
    31c2:	f004 fa77 	bl	76b4 <xTaskResumeAll>
    31c6:	bd80      	pop	{r7, pc}

000031c8 <sleep>:
    31c8:	b580      	push	{r7, lr}
    31ca:	b082      	sub	sp, #8
    31cc:	af00      	add	r7, sp, #0
    31ce:	6078      	str	r0, [r7, #4]
    31d0:	687b      	ldr	r3, [r7, #4]
    31d2:	f44f 727a 	mov.w	r2, #1000	; 0x3e8
    31d6:	fb02 f303 	mul.w	r3, r2, r3
    31da:	4618      	mov	r0, r3
    31dc:	f004 f9dc 	bl	7598 <vTaskDelay>
    31e0:	f04f 0300 	mov.w	r3, #0
    31e4:	4618      	mov	r0, r3
    31e6:	f107 0708 	add.w	r7, r7, #8
    31ea:	46bd      	mov	sp, r7
    31ec:	bd80      	pop	{r7, pc}
    31ee:	bf00      	nop

000031f0 <abort>:
    31f0:	b480      	push	{r7}
    31f2:	af00      	add	r7, sp, #0
    31f4:	e7fe      	b.n	31f4 <abort+0x4>
    31f6:	bf00      	nop

000031f8 <_sbrk_r>:
    31f8:	b480      	push	{r7}
    31fa:	b085      	sub	sp, #20
    31fc:	af00      	add	r7, sp, #0
    31fe:	6078      	str	r0, [r7, #4]
    3200:	6039      	str	r1, [r7, #0]
    3202:	f241 1348 	movw	r3, #4424	; 0x1148
    3206:	f2c2 0300 	movt	r3, #8192	; 0x2000
    320a:	681b      	ldr	r3, [r3, #0]
    320c:	2b00      	cmp	r3, #0
    320e:	d108      	bne.n	3222 <_sbrk_r+0x2a>
    3210:	f241 1348 	movw	r3, #4424	; 0x1148
    3214:	f2c2 0300 	movt	r3, #8192	; 0x2000
    3218:	f641 22f8 	movw	r2, #6904	; 0x1af8
    321c:	f2c2 0200 	movt	r2, #8192	; 0x2000
    3220:	601a      	str	r2, [r3, #0]
    3222:	f241 1348 	movw	r3, #4424	; 0x1148
    3226:	f2c2 0300 	movt	r3, #8192	; 0x2000
    322a:	681b      	ldr	r3, [r3, #0]
    322c:	60fb      	str	r3, [r7, #12]
    322e:	f241 1348 	movw	r3, #4424	; 0x1148
    3232:	f2c2 0300 	movt	r3, #8192	; 0x2000
    3236:	681a      	ldr	r2, [r3, #0]
    3238:	683b      	ldr	r3, [r7, #0]
    323a:	18d2      	adds	r2, r2, r3
    323c:	f246 0300 	movw	r3, #24576	; 0x6000
    3240:	f2c2 0300 	movt	r3, #8192	; 0x2000
    3244:	429a      	cmp	r2, r3
    3246:	d902      	bls.n	324e <_sbrk_r+0x56>
    3248:	f04f 0300 	mov.w	r3, #0
    324c:	e00c      	b.n	3268 <_sbrk_r+0x70>
    324e:	f241 1348 	movw	r3, #4424	; 0x1148
    3252:	f2c2 0300 	movt	r3, #8192	; 0x2000
    3256:	681a      	ldr	r2, [r3, #0]
    3258:	683b      	ldr	r3, [r7, #0]
    325a:	18d2      	adds	r2, r2, r3
    325c:	f241 1348 	movw	r3, #4424	; 0x1148
    3260:	f2c2 0300 	movt	r3, #8192	; 0x2000
    3264:	601a      	str	r2, [r3, #0]
    3266:	68fb      	ldr	r3, [r7, #12]
    3268:	4618      	mov	r0, r3
    326a:	f107 0714 	add.w	r7, r7, #20
    326e:	46bd      	mov	sp, r7
    3270:	bc80      	pop	{r7}
    3272:	4770      	bx	lr

00003274 <vApplicationStackOverflowHook>:
    3274:	b580      	push	{r7, lr}
    3276:	b082      	sub	sp, #8
    3278:	af00      	add	r7, sp, #0
    327a:	6078      	str	r0, [r7, #4]
    327c:	6039      	str	r1, [r7, #0]
    327e:	f7ff ffb7 	bl	31f0 <abort>
    3282:	bf00      	nop

00003284 <vApplicationIdleHook>:
    3284:	b580      	push	{r7, lr}
    3286:	b082      	sub	sp, #8
    3288:	af00      	add	r7, sp, #0
    328a:	f004 fa01 	bl	7690 <vTaskSuspendAll>
    328e:	f004 fa11 	bl	76b4 <xTaskResumeAll>
    3292:	f241 1330 	movw	r3, #4400	; 0x1130
    3296:	f2c2 0300 	movt	r3, #8192	; 0x2000
    329a:	607b      	str	r3, [r7, #4]
    329c:	e018      	b.n	32d0 <vApplicationIdleHook+0x4c>
    329e:	687b      	ldr	r3, [r7, #4]
    32a0:	681b      	ldr	r3, [r3, #0]
    32a2:	2b00      	cmp	r3, #0
    32a4:	d011      	beq.n	32ca <vApplicationIdleHook+0x46>
    32a6:	687b      	ldr	r3, [r7, #4]
    32a8:	681b      	ldr	r3, [r3, #0]
    32aa:	4618      	mov	r0, r3
    32ac:	f004 fae2 	bl	7874 <pcTaskGetTaskName>
    32b0:	4602      	mov	r2, r0
    32b2:	687b      	ldr	r3, [r7, #4]
    32b4:	605a      	str	r2, [r3, #4]
    32b6:	687b      	ldr	r3, [r7, #4]
    32b8:	681b      	ldr	r3, [r3, #0]
    32ba:	4618      	mov	r0, r3
    32bc:	f004 ff38 	bl	8130 <uxTaskGetStackHighWaterMark>
    32c0:	4603      	mov	r3, r0
    32c2:	ea4f 0283 	mov.w	r2, r3, lsl #2
    32c6:	687b      	ldr	r3, [r7, #4]
    32c8:	609a      	str	r2, [r3, #8]
    32ca:	687b      	ldr	r3, [r7, #4]
    32cc:	68db      	ldr	r3, [r3, #12]
    32ce:	607b      	str	r3, [r7, #4]
    32d0:	687b      	ldr	r3, [r7, #4]
    32d2:	2b00      	cmp	r3, #0
    32d4:	d1e3      	bne.n	329e <vApplicationIdleHook+0x1a>
    32d6:	f107 0708 	add.w	r7, r7, #8
    32da:	46bd      	mov	sp, r7
    32dc:	bd80      	pop	{r7, pc}
    32de:	bf00      	nop

000032e0 <main_thread>:
    32e0:	b590      	push	{r4, r7, lr}
    32e2:	b087      	sub	sp, #28
    32e4:	af00      	add	r7, sp, #0
    32e6:	6078      	str	r0, [r7, #4]
    32e8:	687b      	ldr	r3, [r7, #4]
    32ea:	617b      	str	r3, [r7, #20]
    32ec:	f647 436c 	movw	r3, #31852	; 0x7c6c
    32f0:	f2c0 0301 	movt	r3, #1
    32f4:	60fb      	str	r3, [r7, #12]
    32f6:	f04f 0300 	mov.w	r3, #0
    32fa:	613b      	str	r3, [r7, #16]
    32fc:	687b      	ldr	r3, [r7, #4]
    32fe:	f04f 0000 	mov.w	r0, #0
    3302:	4619      	mov	r1, r3
    3304:	f004 fbb6 	bl	7a74 <vTaskSetApplicationTaskTag>
    3308:	697b      	ldr	r3, [r7, #20]
    330a:	681a      	ldr	r2, [r3, #0]
    330c:	f240 4380 	movw	r3, #1152	; 0x480
    3310:	f2c2 0300 	movt	r3, #8192	; 0x2000
    3314:	601a      	str	r2, [r3, #0]
    3316:	f04f 0020 	mov.w	r0, #32
    331a:	f00d ffa3 	bl	11264 <malloc>
    331e:	4602      	mov	r2, r0
    3320:	f241 1330 	movw	r3, #4400	; 0x1130
    3324:	f2c2 0300 	movt	r3, #8192	; 0x2000
    3328:	60da      	str	r2, [r3, #12]
    332a:	f241 1330 	movw	r3, #4400	; 0x1130
    332e:	f2c2 0300 	movt	r3, #8192	; 0x2000
    3332:	68dc      	ldr	r4, [r3, #12]
    3334:	f005 f8c2 	bl	84bc <xTimerGetTimerDaemonTaskHandle>
    3338:	4603      	mov	r3, r0
    333a:	6023      	str	r3, [r4, #0]
    333c:	f241 1330 	movw	r3, #4400	; 0x1130
    3340:	f2c2 0300 	movt	r3, #8192	; 0x2000
    3344:	68dc      	ldr	r4, [r3, #12]
    3346:	f241 1330 	movw	r3, #4400	; 0x1130
    334a:	f2c2 0300 	movt	r3, #8192	; 0x2000
    334e:	68db      	ldr	r3, [r3, #12]
    3350:	681b      	ldr	r3, [r3, #0]
    3352:	4618      	mov	r0, r3
    3354:	f004 feec 	bl	8130 <uxTaskGetStackHighWaterMark>
    3358:	4603      	mov	r3, r0
    335a:	60a3      	str	r3, [r4, #8]
    335c:	f241 1330 	movw	r3, #4400	; 0x1130
    3360:	f2c2 0300 	movt	r3, #8192	; 0x2000
    3364:	68da      	ldr	r2, [r3, #12]
    3366:	f241 1330 	movw	r3, #4400	; 0x1130
    336a:	f2c2 0300 	movt	r3, #8192	; 0x2000
    336e:	68db      	ldr	r3, [r3, #12]
    3370:	f103 0310 	add.w	r3, r3, #16
    3374:	60d3      	str	r3, [r2, #12]
    3376:	f241 1330 	movw	r3, #4400	; 0x1130
    337a:	f2c2 0300 	movt	r3, #8192	; 0x2000
    337e:	68db      	ldr	r3, [r3, #12]
    3380:	68dc      	ldr	r4, [r3, #12]
    3382:	f004 fa8f 	bl	78a4 <xTaskGetIdleTaskHandle>
    3386:	4603      	mov	r3, r0
    3388:	6023      	str	r3, [r4, #0]
    338a:	f241 1330 	movw	r3, #4400	; 0x1130
    338e:	f2c2 0300 	movt	r3, #8192	; 0x2000
    3392:	68db      	ldr	r3, [r3, #12]
    3394:	68dc      	ldr	r4, [r3, #12]
    3396:	f241 1330 	movw	r3, #4400	; 0x1130
    339a:	f2c2 0300 	movt	r3, #8192	; 0x2000
    339e:	68db      	ldr	r3, [r3, #12]
    33a0:	68db      	ldr	r3, [r3, #12]
    33a2:	681b      	ldr	r3, [r3, #0]
    33a4:	4618      	mov	r0, r3
    33a6:	f004 fec3 	bl	8130 <uxTaskGetStackHighWaterMark>
    33aa:	4603      	mov	r3, r0
    33ac:	60a3      	str	r3, [r4, #8]
    33ae:	f241 1330 	movw	r3, #4400	; 0x1130
    33b2:	f2c2 0300 	movt	r3, #8192	; 0x2000
    33b6:	68db      	ldr	r3, [r3, #12]
    33b8:	68db      	ldr	r3, [r3, #12]
    33ba:	f04f 0200 	mov.w	r2, #0
    33be:	60da      	str	r2, [r3, #12]
    33c0:	f04f 0001 	mov.w	r0, #1
    33c4:	f107 030c 	add.w	r3, r7, #12
    33c8:	4619      	mov	r1, r3
    33ca:	f7fc ffcd 	bl	368 <os_main>
    33ce:	f107 071c 	add.w	r7, r7, #28
    33d2:	46bd      	mov	sp, r7
    33d4:	bd90      	pop	{r4, r7, pc}
    33d6:	bf00      	nop

000033d8 <main>:
    33d8:	b580      	push	{r7, lr}
    33da:	b08a      	sub	sp, #40	; 0x28
    33dc:	af04      	add	r7, sp, #16
    33de:	6078      	str	r0, [r7, #4]
    33e0:	6039      	str	r1, [r7, #0]
    33e2:	f04f 000c 	mov.w	r0, #12
    33e6:	f00d ff3d 	bl	11264 <malloc>
    33ea:	60f8      	str	r0, [r7, #12]
    33ec:	f240 4380 	movw	r3, #1152	; 0x480
    33f0:	f2c2 0300 	movt	r3, #8192	; 0x2000
    33f4:	681a      	ldr	r2, [r3, #0]
    33f6:	68fb      	ldr	r3, [r7, #12]
    33f8:	601a      	str	r2, [r3, #0]
    33fa:	68fb      	ldr	r3, [r7, #12]
    33fc:	f04f 0200 	mov.w	r2, #0
    3400:	605a      	str	r2, [r3, #4]
    3402:	68fb      	ldr	r3, [r7, #12]
    3404:	f04f 0200 	mov.w	r2, #0
    3408:	609a      	str	r2, [r3, #8]
    340a:	f7fd f855 	bl	4b8 <hw_init>
    340e:	f647 23c4 	movw	r3, #31428	; 0x7ac4
    3412:	f2c0 0301 	movt	r3, #1
    3416:	681b      	ldr	r3, [r3, #0]
    3418:	2b00      	cmp	r3, #0
    341a:	d103      	bne.n	3424 <main+0x4c>
    341c:	f04f 0302 	mov.w	r3, #2
    3420:	617b      	str	r3, [r7, #20]
    3422:	e007      	b.n	3434 <main+0x5c>
    3424:	f647 23c4 	movw	r3, #31428	; 0x7ac4
    3428:	f2c0 0301 	movt	r3, #1
    342c:	681b      	ldr	r3, [r3, #0]
    342e:	f1c3 0305 	rsb	r3, r3, #5
    3432:	617b      	str	r3, [r7, #20]
    3434:	f640 2308 	movw	r3, #2568	; 0xa08
    3438:	f2c2 0300 	movt	r3, #8192	; 0x2000
    343c:	613b      	str	r3, [r7, #16]
    343e:	e007      	b.n	3450 <main+0x78>
    3440:	693b      	ldr	r3, [r7, #16]
    3442:	685b      	ldr	r3, [r3, #4]
    3444:	6938      	ldr	r0, [r7, #16]
    3446:	4798      	blx	r3
    3448:	693b      	ldr	r3, [r7, #16]
    344a:	f103 0310 	add.w	r3, r3, #16
    344e:	613b      	str	r3, [r7, #16]
    3450:	693a      	ldr	r2, [r7, #16]
    3452:	f640 23c8 	movw	r3, #2760	; 0xac8
    3456:	f2c2 0300 	movt	r3, #8192	; 0x2000
    345a:	429a      	cmp	r2, r3
    345c:	d1f0      	bne.n	3440 <main+0x68>
    345e:	f647 4074 	movw	r0, #31860	; 0x7c74
    3462:	f2c0 0001 	movt	r0, #1
    3466:	f04f 0102 	mov.w	r1, #2
    346a:	f00e fce5 	bl	11e38 <open>
    346e:	f647 4074 	movw	r0, #31860	; 0x7c74
    3472:	f2c0 0001 	movt	r0, #1
    3476:	f04f 0102 	mov.w	r1, #2
    347a:	f00e fcdd 	bl	11e38 <open>
    347e:	f647 4074 	movw	r0, #31860	; 0x7c74
    3482:	f2c0 0001 	movt	r0, #1
    3486:	f04f 0101 	mov.w	r1, #1
    348a:	f00e fcd5 	bl	11e38 <open>
    348e:	f647 23c0 	movw	r3, #31424	; 0x7ac0
    3492:	f2c0 0301 	movt	r3, #1
    3496:	681b      	ldr	r3, [r3, #0]
    3498:	ea4f 0393 	mov.w	r3, r3, lsr #2
    349c:	b29b      	uxth	r3, r3
    349e:	697a      	ldr	r2, [r7, #20]
    34a0:	9200      	str	r2, [sp, #0]
    34a2:	f107 0208 	add.w	r2, r7, #8
    34a6:	9201      	str	r2, [sp, #4]
    34a8:	f04f 0200 	mov.w	r2, #0
    34ac:	9202      	str	r2, [sp, #8]
    34ae:	f04f 0200 	mov.w	r2, #0
    34b2:	9203      	str	r2, [sp, #12]
    34b4:	f243 20e1 	movw	r0, #13025	; 0x32e1
    34b8:	f2c0 0000 	movt	r0, #0
    34bc:	f647 4180 	movw	r1, #31872	; 0x7c80
    34c0:	f2c0 0101 	movt	r1, #1
    34c4:	461a      	mov	r2, r3
    34c6:	68fb      	ldr	r3, [r7, #12]
    34c8:	f003 ff38 	bl	733c <xTaskGenericCreate>
    34cc:	68ba      	ldr	r2, [r7, #8]
    34ce:	f241 1330 	movw	r3, #4400	; 0x1130
    34d2:	f2c2 0300 	movt	r3, #8192	; 0x2000
    34d6:	601a      	str	r2, [r3, #0]
    34d8:	f647 23c0 	movw	r3, #31424	; 0x7ac0
    34dc:	f2c0 0301 	movt	r3, #1
    34e0:	681a      	ldr	r2, [r3, #0]
    34e2:	f241 1330 	movw	r3, #4400	; 0x1130
    34e6:	f2c2 0300 	movt	r3, #8192	; 0x2000
    34ea:	609a      	str	r2, [r3, #8]
    34ec:	f004 f882 	bl	75f4 <vTaskStartScheduler>
    34f0:	f04f 0300 	mov.w	r3, #0
    34f4:	4618      	mov	r0, r3
    34f6:	f107 0718 	add.w	r7, r7, #24
    34fa:	46bd      	mov	sp, r7
    34fc:	bd80      	pop	{r7, pc}
    34fe:	bf00      	nop

00003500 <os_get_time_monotonic>:
    3500:	b580      	push	{r7, lr}
    3502:	b082      	sub	sp, #8
    3504:	af00      	add	r7, sp, #0
    3506:	f004 f97f 	bl	7808 <xTaskGetTickCount>
    350a:	6078      	str	r0, [r7, #4]
    350c:	6879      	ldr	r1, [r7, #4]
    350e:	460a      	mov	r2, r1
    3510:	f04f 0300 	mov.w	r3, #0
    3514:	f244 2140 	movw	r1, #16960	; 0x4240
    3518:	f2c0 010f 	movt	r1, #15
    351c:	fb01 f003 	mul.w	r0, r1, r3
    3520:	f04f 0100 	mov.w	r1, #0
    3524:	fb01 f102 	mul.w	r1, r1, r2
    3528:	1840      	adds	r0, r0, r1
    352a:	f244 2140 	movw	r1, #16960	; 0x4240
    352e:	f2c0 010f 	movt	r1, #15
    3532:	fba2 2301 	umull	r2, r3, r2, r1
    3536:	18c1      	adds	r1, r0, r3
    3538:	460b      	mov	r3, r1
    353a:	4610      	mov	r0, r2
    353c:	4619      	mov	r1, r3
    353e:	f107 0708 	add.w	r7, r7, #8
    3542:	46bd      	mov	sp, r7
    3544:	bd80      	pop	{r7, pc}
    3546:	bf00      	nop

00003548 <nmranet_alias_cache_create>:
    3548:	b580      	push	{r7, lr}
    354a:	b086      	sub	sp, #24
    354c:	af00      	add	r7, sp, #0
    354e:	e9c7 0102 	strd	r0, r1, [r7, #8]
    3552:	607a      	str	r2, [r7, #4]
    3554:	f04f 0020 	mov.w	r0, #32
    3558:	f00d fe84 	bl	11264 <malloc>
    355c:	6178      	str	r0, [r7, #20]
    355e:	697b      	ldr	r3, [r7, #20]
    3560:	687a      	ldr	r2, [r7, #4]
    3562:	601a      	str	r2, [r3, #0]
    3564:	6979      	ldr	r1, [r7, #20]
    3566:	e9d7 2302 	ldrd	r2, r3, [r7, #8]
    356a:	e9c1 2302 	strd	r2, r3, [r1, #8]
    356e:	687b      	ldr	r3, [r7, #4]
    3570:	ea4f 03c3 	mov.w	r3, r3, lsl #3
    3574:	4618      	mov	r0, r3
    3576:	f00d fe75 	bl	11264 <malloc>
    357a:	4602      	mov	r2, r0
    357c:	697b      	ldr	r3, [r7, #20]
    357e:	611a      	str	r2, [r3, #16]
    3580:	687b      	ldr	r3, [r7, #4]
    3582:	ea4f 0343 	mov.w	r3, r3, lsl #1
    3586:	4618      	mov	r0, r3
    3588:	f00d fe6c 	bl	11264 <malloc>
    358c:	4602      	mov	r2, r0
    358e:	697b      	ldr	r3, [r7, #20]
    3590:	615a      	str	r2, [r3, #20]
    3592:	697b      	ldr	r3, [r7, #20]
    3594:	691a      	ldr	r2, [r3, #16]
    3596:	687b      	ldr	r3, [r7, #4]
    3598:	ea4f 03c3 	mov.w	r3, r3, lsl #3
    359c:	4610      	mov	r0, r2
    359e:	f04f 0100 	mov.w	r1, #0
    35a2:	461a      	mov	r2, r3
    35a4:	f00e f9d4 	bl	11950 <memset>
    35a8:	697b      	ldr	r3, [r7, #20]
    35aa:	695a      	ldr	r2, [r3, #20]
    35ac:	687b      	ldr	r3, [r7, #4]
    35ae:	ea4f 0343 	mov.w	r3, r3, lsl #1
    35b2:	4610      	mov	r0, r2
    35b4:	f04f 0100 	mov.w	r1, #0
    35b8:	461a      	mov	r2, r3
    35ba:	f00e f9c9 	bl	11950 <memset>
    35be:	687b      	ldr	r3, [r7, #4]
    35c0:	ea4f 03c3 	mov.w	r3, r3, lsl #3
    35c4:	4618      	mov	r0, r3
    35c6:	f00d fe4d 	bl	11264 <malloc>
    35ca:	4602      	mov	r2, r0
    35cc:	697b      	ldr	r3, [r7, #20]
    35ce:	619a      	str	r2, [r3, #24]
    35d0:	697b      	ldr	r3, [r7, #20]
    35d2:	4618      	mov	r0, r3
    35d4:	f107 0718 	add.w	r7, r7, #24
    35d8:	46bd      	mov	sp, r7
    35da:	bd80      	pop	{r7, pc}

000035dc <nmranet_alias_add>:
    35dc:	b590      	push	{r4, r7, lr}
    35de:	b08b      	sub	sp, #44	; 0x2c
    35e0:	af00      	add	r7, sp, #0
    35e2:	60f8      	str	r0, [r7, #12]
    35e4:	e9c7 2300 	strd	r2, r3, [r7]
    35e8:	68fb      	ldr	r3, [r7, #12]
    35ea:	617b      	str	r3, [r7, #20]
    35ec:	f04f 32ff 	mov.w	r2, #4294967295
    35f0:	f06f 4300 	mvn.w	r3, #2147483648	; 0x80000000
    35f4:	e9c7 2308 	strd	r2, r3, [r7, #32]
    35f8:	f04f 0300 	mov.w	r3, #0
    35fc:	61fb      	str	r3, [r7, #28]
    35fe:	68fb      	ldr	r3, [r7, #12]
    3600:	2b00      	cmp	r3, #0
    3602:	d05a      	beq.n	36ba <nmranet_alias_add+0xde>
    3604:	e9d7 2300 	ldrd	r2, r3, [r7]
    3608:	ea52 0103 	orrs.w	r1, r2, r3
    360c:	d055      	beq.n	36ba <nmranet_alias_add+0xde>
    360e:	8f3b      	ldrh	r3, [r7, #56]	; 0x38
    3610:	2b00      	cmp	r3, #0
    3612:	d052      	beq.n	36ba <nmranet_alias_add+0xde>
    3614:	f04f 0300 	mov.w	r3, #0
    3618:	61bb      	str	r3, [r7, #24]
    361a:	e029      	b.n	3670 <nmranet_alias_add+0x94>
    361c:	697b      	ldr	r3, [r7, #20]
    361e:	695a      	ldr	r2, [r3, #20]
    3620:	69bb      	ldr	r3, [r7, #24]
    3622:	ea4f 0343 	mov.w	r3, r3, lsl #1
    3626:	18d3      	adds	r3, r2, r3
    3628:	881b      	ldrh	r3, [r3, #0]
    362a:	2b00      	cmp	r3, #0
    362c:	d102      	bne.n	3634 <nmranet_alias_add+0x58>
    362e:	69bb      	ldr	r3, [r7, #24]
    3630:	61fb      	str	r3, [r7, #28]
    3632:	e022      	b.n	367a <nmranet_alias_add+0x9e>
    3634:	697b      	ldr	r3, [r7, #20]
    3636:	699a      	ldr	r2, [r3, #24]
    3638:	69bb      	ldr	r3, [r7, #24]
    363a:	ea4f 03c3 	mov.w	r3, r3, lsl #3
    363e:	18d3      	adds	r3, r2, r3
    3640:	e9d3 0100 	ldrd	r0, r1, [r3]
    3644:	e9d7 2308 	ldrd	r2, r3, [r7, #32]
    3648:	4290      	cmp	r0, r2
    364a:	eb71 0c03 	sbcs.w	ip, r1, r3
    364e:	da0b      	bge.n	3668 <nmranet_alias_add+0x8c>
    3650:	697b      	ldr	r3, [r7, #20]
    3652:	699a      	ldr	r2, [r3, #24]
    3654:	69bb      	ldr	r3, [r7, #24]
    3656:	ea4f 03c3 	mov.w	r3, r3, lsl #3
    365a:	18d3      	adds	r3, r2, r3
    365c:	e9d3 2300 	ldrd	r2, r3, [r3]
    3660:	e9c7 2308 	strd	r2, r3, [r7, #32]
    3664:	69bb      	ldr	r3, [r7, #24]
    3666:	61fb      	str	r3, [r7, #28]
    3668:	69bb      	ldr	r3, [r7, #24]
    366a:	f103 0301 	add.w	r3, r3, #1
    366e:	61bb      	str	r3, [r7, #24]
    3670:	697b      	ldr	r3, [r7, #20]
    3672:	681a      	ldr	r2, [r3, #0]
    3674:	69bb      	ldr	r3, [r7, #24]
    3676:	429a      	cmp	r2, r3
    3678:	d8d0      	bhi.n	361c <nmranet_alias_add+0x40>
    367a:	697b      	ldr	r3, [r7, #20]
    367c:	691a      	ldr	r2, [r3, #16]
    367e:	69fb      	ldr	r3, [r7, #28]
    3680:	ea4f 03c3 	mov.w	r3, r3, lsl #3
    3684:	18d1      	adds	r1, r2, r3
    3686:	e9d7 2300 	ldrd	r2, r3, [r7]
    368a:	e9c1 2300 	strd	r2, r3, [r1]
    368e:	697b      	ldr	r3, [r7, #20]
    3690:	695a      	ldr	r2, [r3, #20]
    3692:	69fb      	ldr	r3, [r7, #28]
    3694:	ea4f 0343 	mov.w	r3, r3, lsl #1
    3698:	18d3      	adds	r3, r2, r3
    369a:	8f3a      	ldrh	r2, [r7, #56]	; 0x38
    369c:	801a      	strh	r2, [r3, #0]
    369e:	697b      	ldr	r3, [r7, #20]
    36a0:	699a      	ldr	r2, [r3, #24]
    36a2:	69fb      	ldr	r3, [r7, #28]
    36a4:	ea4f 03c3 	mov.w	r3, r3, lsl #3
    36a8:	18d4      	adds	r4, r2, r3
    36aa:	f7ff ff29 	bl	3500 <os_get_time_monotonic>
    36ae:	4602      	mov	r2, r0
    36b0:	460b      	mov	r3, r1
    36b2:	e9c4 2300 	strd	r2, r3, [r4]
    36b6:	bf00      	nop
    36b8:	e000      	b.n	36bc <nmranet_alias_add+0xe0>
    36ba:	bf00      	nop
    36bc:	f107 072c 	add.w	r7, r7, #44	; 0x2c
    36c0:	46bd      	mov	sp, r7
    36c2:	bd90      	pop	{r4, r7, pc}

000036c4 <nmranet_alias_remove>:
    36c4:	b480      	push	{r7}
    36c6:	b085      	sub	sp, #20
    36c8:	af00      	add	r7, sp, #0
    36ca:	6078      	str	r0, [r7, #4]
    36cc:	460b      	mov	r3, r1
    36ce:	807b      	strh	r3, [r7, #2]
    36d0:	687b      	ldr	r3, [r7, #4]
    36d2:	60bb      	str	r3, [r7, #8]
    36d4:	687b      	ldr	r3, [r7, #4]
    36d6:	2b00      	cmp	r3, #0
    36d8:	d024      	beq.n	3724 <nmranet_alias_remove+0x60>
    36da:	887b      	ldrh	r3, [r7, #2]
    36dc:	2b00      	cmp	r3, #0
    36de:	d021      	beq.n	3724 <nmranet_alias_remove+0x60>
    36e0:	f04f 0300 	mov.w	r3, #0
    36e4:	60fb      	str	r3, [r7, #12]
    36e6:	e017      	b.n	3718 <nmranet_alias_remove+0x54>
    36e8:	68bb      	ldr	r3, [r7, #8]
    36ea:	695a      	ldr	r2, [r3, #20]
    36ec:	68fb      	ldr	r3, [r7, #12]
    36ee:	ea4f 0343 	mov.w	r3, r3, lsl #1
    36f2:	18d3      	adds	r3, r2, r3
    36f4:	881b      	ldrh	r3, [r3, #0]
    36f6:	887a      	ldrh	r2, [r7, #2]
    36f8:	429a      	cmp	r2, r3
    36fa:	d109      	bne.n	3710 <nmranet_alias_remove+0x4c>
    36fc:	68bb      	ldr	r3, [r7, #8]
    36fe:	695a      	ldr	r2, [r3, #20]
    3700:	68fb      	ldr	r3, [r7, #12]
    3702:	ea4f 0343 	mov.w	r3, r3, lsl #1
    3706:	18d3      	adds	r3, r2, r3
    3708:	f04f 0200 	mov.w	r2, #0
    370c:	801a      	strh	r2, [r3, #0]
    370e:	e00a      	b.n	3726 <nmranet_alias_remove+0x62>
    3710:	68fb      	ldr	r3, [r7, #12]
    3712:	f103 0301 	add.w	r3, r3, #1
    3716:	60fb      	str	r3, [r7, #12]
    3718:	68bb      	ldr	r3, [r7, #8]
    371a:	681a      	ldr	r2, [r3, #0]
    371c:	68fb      	ldr	r3, [r7, #12]
    371e:	429a      	cmp	r2, r3
    3720:	d8e2      	bhi.n	36e8 <nmranet_alias_remove+0x24>
    3722:	e000      	b.n	3726 <nmranet_alias_remove+0x62>
    3724:	bf00      	nop
    3726:	f107 0714 	add.w	r7, r7, #20
    372a:	46bd      	mov	sp, r7
    372c:	bc80      	pop	{r7}
    372e:	4770      	bx	lr

00003730 <nmranet_alias_lookup>:
    3730:	b480      	push	{r7}
    3732:	b087      	sub	sp, #28
    3734:	af00      	add	r7, sp, #0
    3736:	60f8      	str	r0, [r7, #12]
    3738:	e9c7 2300 	strd	r2, r3, [r7]
    373c:	68fb      	ldr	r3, [r7, #12]
    373e:	613b      	str	r3, [r7, #16]
    3740:	68fb      	ldr	r3, [r7, #12]
    3742:	2b00      	cmp	r3, #0
    3744:	d004      	beq.n	3750 <nmranet_alias_lookup+0x20>
    3746:	e9d7 2300 	ldrd	r2, r3, [r7]
    374a:	ea52 0103 	orrs.w	r1, r2, r3
    374e:	d102      	bne.n	3756 <nmranet_alias_lookup+0x26>
    3750:	f04f 0300 	mov.w	r3, #0
    3754:	e027      	b.n	37a6 <nmranet_alias_lookup+0x76>
    3756:	f04f 0300 	mov.w	r3, #0
    375a:	617b      	str	r3, [r7, #20]
    375c:	e01c      	b.n	3798 <nmranet_alias_lookup+0x68>
    375e:	693b      	ldr	r3, [r7, #16]
    3760:	691a      	ldr	r2, [r3, #16]
    3762:	697b      	ldr	r3, [r7, #20]
    3764:	ea4f 03c3 	mov.w	r3, r3, lsl #3
    3768:	18d3      	adds	r3, r2, r3
    376a:	e9d3 0100 	ldrd	r0, r1, [r3]
    376e:	e9d7 2300 	ldrd	r2, r3, [r7]
    3772:	ea82 0200 	eor.w	r2, r2, r0
    3776:	ea83 0301 	eor.w	r3, r3, r1
    377a:	ea52 0103 	orrs.w	r1, r2, r3
    377e:	d107      	bne.n	3790 <nmranet_alias_lookup+0x60>
    3780:	693b      	ldr	r3, [r7, #16]
    3782:	695a      	ldr	r2, [r3, #20]
    3784:	697b      	ldr	r3, [r7, #20]
    3786:	ea4f 0343 	mov.w	r3, r3, lsl #1
    378a:	18d3      	adds	r3, r2, r3
    378c:	881b      	ldrh	r3, [r3, #0]
    378e:	e00a      	b.n	37a6 <nmranet_alias_lookup+0x76>
    3790:	697b      	ldr	r3, [r7, #20]
    3792:	f103 0301 	add.w	r3, r3, #1
    3796:	617b      	str	r3, [r7, #20]
    3798:	693b      	ldr	r3, [r7, #16]
    379a:	681a      	ldr	r2, [r3, #0]
    379c:	697b      	ldr	r3, [r7, #20]
    379e:	429a      	cmp	r2, r3
    37a0:	d8dd      	bhi.n	375e <nmranet_alias_lookup+0x2e>
    37a2:	f04f 0300 	mov.w	r3, #0
    37a6:	4618      	mov	r0, r3
    37a8:	f107 071c 	add.w	r7, r7, #28
    37ac:	46bd      	mov	sp, r7
    37ae:	bc80      	pop	{r7}
    37b0:	4770      	bx	lr
    37b2:	bf00      	nop

000037b4 <nmranet_alias_lookup_id>:
    37b4:	b480      	push	{r7}
    37b6:	b085      	sub	sp, #20
    37b8:	af00      	add	r7, sp, #0
    37ba:	6078      	str	r0, [r7, #4]
    37bc:	460b      	mov	r3, r1
    37be:	807b      	strh	r3, [r7, #2]
    37c0:	687b      	ldr	r3, [r7, #4]
    37c2:	60bb      	str	r3, [r7, #8]
    37c4:	687b      	ldr	r3, [r7, #4]
    37c6:	2b00      	cmp	r3, #0
    37c8:	d002      	beq.n	37d0 <nmranet_alias_lookup_id+0x1c>
    37ca:	887b      	ldrh	r3, [r7, #2]
    37cc:	2b00      	cmp	r3, #0
    37ce:	d104      	bne.n	37da <nmranet_alias_lookup_id+0x26>
    37d0:	f04f 0200 	mov.w	r2, #0
    37d4:	f04f 0300 	mov.w	r3, #0
    37d8:	e023      	b.n	3822 <nmranet_alias_lookup_id+0x6e>
    37da:	f04f 0300 	mov.w	r3, #0
    37de:	60fb      	str	r3, [r7, #12]
    37e0:	e016      	b.n	3810 <nmranet_alias_lookup_id+0x5c>
    37e2:	68bb      	ldr	r3, [r7, #8]
    37e4:	695a      	ldr	r2, [r3, #20]
    37e6:	68fb      	ldr	r3, [r7, #12]
    37e8:	ea4f 0343 	mov.w	r3, r3, lsl #1
    37ec:	18d3      	adds	r3, r2, r3
    37ee:	881b      	ldrh	r3, [r3, #0]
    37f0:	887a      	ldrh	r2, [r7, #2]
    37f2:	429a      	cmp	r2, r3
    37f4:	d108      	bne.n	3808 <nmranet_alias_lookup_id+0x54>
    37f6:	68bb      	ldr	r3, [r7, #8]
    37f8:	691a      	ldr	r2, [r3, #16]
    37fa:	68fb      	ldr	r3, [r7, #12]
    37fc:	ea4f 03c3 	mov.w	r3, r3, lsl #3
    3800:	18d3      	adds	r3, r2, r3
    3802:	e9d3 2300 	ldrd	r2, r3, [r3]
    3806:	e00c      	b.n	3822 <nmranet_alias_lookup_id+0x6e>
    3808:	68fb      	ldr	r3, [r7, #12]
    380a:	f103 0301 	add.w	r3, r3, #1
    380e:	60fb      	str	r3, [r7, #12]
    3810:	68bb      	ldr	r3, [r7, #8]
    3812:	681a      	ldr	r2, [r3, #0]
    3814:	68fb      	ldr	r3, [r7, #12]
    3816:	429a      	cmp	r2, r3
    3818:	d8e3      	bhi.n	37e2 <nmranet_alias_lookup_id+0x2e>
    381a:	f04f 0200 	mov.w	r2, #0
    381e:	f04f 0300 	mov.w	r3, #0
    3822:	4610      	mov	r0, r2
    3824:	4619      	mov	r1, r3
    3826:	f107 0714 	add.w	r7, r7, #20
    382a:	46bd      	mov	sp, r7
    382c:	bc80      	pop	{r7}
    382e:	4770      	bx	lr

00003830 <nmranet_alias_generate>:
    3830:	e92d 4f90 	stmdb	sp!, {r4, r7, r8, r9, sl, fp, lr}
    3834:	b089      	sub	sp, #36	; 0x24
    3836:	af00      	add	r7, sp, #0
    3838:	6178      	str	r0, [r7, #20]
    383a:	697b      	ldr	r3, [r7, #20]
    383c:	61fb      	str	r3, [r7, #28]
    383e:	697b      	ldr	r3, [r7, #20]
    3840:	2b00      	cmp	r3, #0
    3842:	d102      	bne.n	384a <nmranet_alias_generate+0x1a>
    3844:	f04f 0300 	mov.w	r3, #0
    3848:	e06c      	b.n	3924 <nmranet_alias_generate+0xf4>
    384a:	69fb      	ldr	r3, [r7, #28]
    384c:	e9d3 2302 	ldrd	r2, r3, [r3, #8]
    3850:	b290      	uxth	r0, r2
    3852:	69fb      	ldr	r3, [r7, #28]
    3854:	e9d3 2302 	ldrd	r2, r3, [r3, #8]
    3858:	ea4f 5103 	mov.w	r1, r3, lsl #20
    385c:	ea4f 3c12 	mov.w	ip, r2, lsr #12
    3860:	f8c7 c008 	str.w	ip, [r7, #8]
    3864:	f8d7 c008 	ldr.w	ip, [r7, #8]
    3868:	ea41 0c0c 	orr.w	ip, r1, ip
    386c:	f8c7 c008 	str.w	ip, [r7, #8]
    3870:	ea4f 3113 	mov.w	r1, r3, lsr #12
    3874:	60f9      	str	r1, [r7, #12]
    3876:	893a      	ldrh	r2, [r7, #8]
    3878:	b293      	uxth	r3, r2
    387a:	4043      	eors	r3, r0
    387c:	b298      	uxth	r0, r3
    387e:	69fb      	ldr	r3, [r7, #28]
    3880:	e9d3 2302 	ldrd	r2, r3, [r3, #8]
    3884:	ea4f 2103 	mov.w	r1, r3, lsl #8
    3888:	ea4f 6a12 	mov.w	sl, r2, lsr #24
    388c:	ea41 0a0a 	orr.w	sl, r1, sl
    3890:	ea4f 6b13 	mov.w	fp, r3, lsr #24
    3894:	fa1f f38a 	uxth.w	r3, sl
    3898:	4043      	eors	r3, r0
    389a:	b299      	uxth	r1, r3
    389c:	69fb      	ldr	r3, [r7, #28]
    389e:	e9d3 2302 	ldrd	r2, r3, [r3, #8]
    38a2:	ea4f 1c13 	mov.w	ip, r3, lsr #4
    38a6:	f8c7 c000 	str.w	ip, [r7]
    38aa:	f04f 0000 	mov.w	r0, #0
    38ae:	6078      	str	r0, [r7, #4]
    38b0:	883a      	ldrh	r2, [r7, #0]
    38b2:	b293      	uxth	r3, r2
    38b4:	404b      	eors	r3, r1
    38b6:	b29b      	uxth	r3, r3
    38b8:	ea4f 5303 	mov.w	r3, r3, lsl #20
    38bc:	ea4f 5313 	mov.w	r3, r3, lsr #20
    38c0:	837b      	strh	r3, [r7, #26]
    38c2:	69fb      	ldr	r3, [r7, #28]
    38c4:	e9d3 0102 	ldrd	r0, r1, [r3, #8]
    38c8:	4602      	mov	r2, r0
    38ca:	460b      	mov	r3, r1
    38cc:	ea4f 54d2 	mov.w	r4, r2, lsr #23
    38d0:	ea4f 2943 	mov.w	r9, r3, lsl #9
    38d4:	ea44 0909 	orr.w	r9, r4, r9
    38d8:	ea4f 2842 	mov.w	r8, r2, lsl #9
    38dc:	4642      	mov	r2, r8
    38de:	464b      	mov	r3, r9
    38e0:	1880      	adds	r0, r0, r2
    38e2:	eb41 0103 	adc.w	r1, r1, r3
    38e6:	a312      	add	r3, pc, #72	; (adr r3, 3930 <nmranet_alias_generate+0x100>)
    38e8:	e9d3 2300 	ldrd	r2, r3, [r3]
    38ec:	1880      	adds	r0, r0, r2
    38ee:	eb41 0103 	adc.w	r1, r1, r3
    38f2:	f04f 32ff 	mov.w	r2, #4294967295
    38f6:	f64f 73ff 	movw	r3, #65535	; 0xffff
    38fa:	ea02 0200 	and.w	r2, r2, r0
    38fe:	ea03 0301 	and.w	r3, r3, r1
    3902:	69f9      	ldr	r1, [r7, #28]
    3904:	e9c1 2302 	strd	r2, r3, [r1, #8]
    3908:	8b7b      	ldrh	r3, [r7, #26]
    390a:	2b00      	cmp	r3, #0
    390c:	d09d      	beq.n	384a <nmranet_alias_generate+0x1a>
    390e:	8b7b      	ldrh	r3, [r7, #26]
    3910:	6978      	ldr	r0, [r7, #20]
    3912:	4619      	mov	r1, r3
    3914:	f7ff ff4e 	bl	37b4 <nmranet_alias_lookup_id>
    3918:	4602      	mov	r2, r0
    391a:	460b      	mov	r3, r1
    391c:	ea52 0c03 	orrs.w	ip, r2, r3
    3920:	d193      	bne.n	384a <nmranet_alias_generate+0x1a>
    3922:	8b7b      	ldrh	r3, [r7, #26]
    3924:	4618      	mov	r0, r3
    3926:	f107 0724 	add.w	r7, r7, #36	; 0x24
    392a:	46bd      	mov	sp, r7
    392c:	e8bd 8f90 	ldmia.w	sp!, {r4, r7, r8, r9, sl, fp, pc}
    3930:	ca37aba9 	.word	0xca37aba9
    3934:	000001b0 	.word	0x000001b0

00003938 <os_mutex_lock>:
    3938:	b580      	push	{r7, lr}
    393a:	b082      	sub	sp, #8
    393c:	af00      	add	r7, sp, #0
    393e:	6078      	str	r0, [r7, #4]
    3940:	f003 fea6 	bl	7690 <vTaskSuspendAll>
    3944:	687b      	ldr	r3, [r7, #4]
    3946:	681b      	ldr	r3, [r3, #0]
    3948:	2b00      	cmp	r3, #0
    394a:	d112      	bne.n	3972 <os_mutex_lock+0x3a>
    394c:	687b      	ldr	r3, [r7, #4]
    394e:	791b      	ldrb	r3, [r3, #4]
    3950:	2b00      	cmp	r3, #0
    3952:	d007      	beq.n	3964 <os_mutex_lock+0x2c>
    3954:	f04f 0004 	mov.w	r0, #4
    3958:	f003 f8c2 	bl	6ae0 <xQueueCreateMutex>
    395c:	4602      	mov	r2, r0
    395e:	687b      	ldr	r3, [r7, #4]
    3960:	601a      	str	r2, [r3, #0]
    3962:	e006      	b.n	3972 <os_mutex_lock+0x3a>
    3964:	f04f 0001 	mov.w	r0, #1
    3968:	f003 f8ba 	bl	6ae0 <xQueueCreateMutex>
    396c:	4602      	mov	r2, r0
    396e:	687b      	ldr	r3, [r7, #4]
    3970:	601a      	str	r2, [r3, #0]
    3972:	f003 fe9f 	bl	76b4 <xTaskResumeAll>
    3976:	687b      	ldr	r3, [r7, #4]
    3978:	791b      	ldrb	r3, [r3, #4]
    397a:	2b00      	cmp	r3, #0
    397c:	d007      	beq.n	398e <os_mutex_lock+0x56>
    397e:	687b      	ldr	r3, [r7, #4]
    3980:	681b      	ldr	r3, [r3, #0]
    3982:	4618      	mov	r0, r3
    3984:	f04f 31ff 	mov.w	r1, #4294967295
    3988:	f003 f922 	bl	6bd0 <xQueueTakeMutexRecursive>
    398c:	e00a      	b.n	39a4 <os_mutex_lock+0x6c>
    398e:	687b      	ldr	r3, [r7, #4]
    3990:	681b      	ldr	r3, [r3, #0]
    3992:	4618      	mov	r0, r3
    3994:	f04f 0100 	mov.w	r1, #0
    3998:	f04f 32ff 	mov.w	r2, #4294967295
    399c:	f04f 0300 	mov.w	r3, #0
    39a0:	f003 fa34 	bl	6e0c <xQueueGenericReceive>
    39a4:	f04f 0300 	mov.w	r3, #0
    39a8:	4618      	mov	r0, r3
    39aa:	f107 0708 	add.w	r7, r7, #8
    39ae:	46bd      	mov	sp, r7
    39b0:	bd80      	pop	{r7, pc}
    39b2:	bf00      	nop

000039b4 <os_mutex_unlock>:
    39b4:	b580      	push	{r7, lr}
    39b6:	b082      	sub	sp, #8
    39b8:	af00      	add	r7, sp, #0
    39ba:	6078      	str	r0, [r7, #4]
    39bc:	687b      	ldr	r3, [r7, #4]
    39be:	791b      	ldrb	r3, [r3, #4]
    39c0:	2b00      	cmp	r3, #0
    39c2:	d005      	beq.n	39d0 <os_mutex_unlock+0x1c>
    39c4:	687b      	ldr	r3, [r7, #4]
    39c6:	681b      	ldr	r3, [r3, #0]
    39c8:	4618      	mov	r0, r3
    39ca:	f003 f8d5 	bl	6b78 <xQueueGiveMutexRecursive>
    39ce:	e00a      	b.n	39e6 <os_mutex_unlock+0x32>
    39d0:	687b      	ldr	r3, [r7, #4]
    39d2:	681b      	ldr	r3, [r3, #0]
    39d4:	4618      	mov	r0, r3
    39d6:	f04f 0100 	mov.w	r1, #0
    39da:	f04f 0200 	mov.w	r2, #0
    39de:	f04f 0300 	mov.w	r3, #0
    39e2:	f003 f93d 	bl	6c60 <xQueueGenericSend>
    39e6:	f04f 0300 	mov.w	r3, #0
    39ea:	4618      	mov	r0, r3
    39ec:	f107 0708 	add.w	r7, r7, #8
    39f0:	46bd      	mov	sp, r7
    39f2:	bd80      	pop	{r7, pc}

000039f4 <nmranet_buffer_alloc>:
    39f4:	b580      	push	{r7, lr}
    39f6:	b084      	sub	sp, #16
    39f8:	af00      	add	r7, sp, #0
    39fa:	6078      	str	r0, [r7, #4]
    39fc:	f04f 0300 	mov.w	r3, #0
    3a00:	60fb      	str	r3, [r7, #12]
    3a02:	687b      	ldr	r3, [r7, #4]
    3a04:	2b04      	cmp	r3, #4
    3a06:	d806      	bhi.n	3a16 <nmranet_buffer_alloc+0x22>
    3a08:	f04f 0300 	mov.w	r3, #0
    3a0c:	60fb      	str	r3, [r7, #12]
    3a0e:	f04f 0304 	mov.w	r3, #4
    3a12:	607b      	str	r3, [r7, #4]
    3a14:	e040      	b.n	3a98 <nmranet_buffer_alloc+0xa4>
    3a16:	687b      	ldr	r3, [r7, #4]
    3a18:	2b08      	cmp	r3, #8
    3a1a:	d806      	bhi.n	3a2a <nmranet_buffer_alloc+0x36>
    3a1c:	f04f 0301 	mov.w	r3, #1
    3a20:	60fb      	str	r3, [r7, #12]
    3a22:	f04f 0308 	mov.w	r3, #8
    3a26:	607b      	str	r3, [r7, #4]
    3a28:	e036      	b.n	3a98 <nmranet_buffer_alloc+0xa4>
    3a2a:	687b      	ldr	r3, [r7, #4]
    3a2c:	2b10      	cmp	r3, #16
    3a2e:	d806      	bhi.n	3a3e <nmranet_buffer_alloc+0x4a>
    3a30:	f04f 0302 	mov.w	r3, #2
    3a34:	60fb      	str	r3, [r7, #12]
    3a36:	f04f 0310 	mov.w	r3, #16
    3a3a:	607b      	str	r3, [r7, #4]
    3a3c:	e02c      	b.n	3a98 <nmranet_buffer_alloc+0xa4>
    3a3e:	687b      	ldr	r3, [r7, #4]
    3a40:	2b20      	cmp	r3, #32
    3a42:	d806      	bhi.n	3a52 <nmranet_buffer_alloc+0x5e>
    3a44:	f04f 0303 	mov.w	r3, #3
    3a48:	60fb      	str	r3, [r7, #12]
    3a4a:	f04f 0320 	mov.w	r3, #32
    3a4e:	607b      	str	r3, [r7, #4]
    3a50:	e022      	b.n	3a98 <nmranet_buffer_alloc+0xa4>
    3a52:	687b      	ldr	r3, [r7, #4]
    3a54:	f103 030c 	add.w	r3, r3, #12
    3a58:	4618      	mov	r0, r3
    3a5a:	f00d fc03 	bl	11264 <malloc>
    3a5e:	60b8      	str	r0, [r7, #8]
    3a60:	68bb      	ldr	r3, [r7, #8]
    3a62:	f04f 0200 	mov.w	r2, #0
    3a66:	601a      	str	r2, [r3, #0]
    3a68:	68bb      	ldr	r3, [r7, #8]
    3a6a:	687a      	ldr	r2, [r7, #4]
    3a6c:	605a      	str	r2, [r3, #4]
    3a6e:	68bb      	ldr	r3, [r7, #8]
    3a70:	687a      	ldr	r2, [r7, #4]
    3a72:	609a      	str	r2, [r3, #8]
    3a74:	f241 1358 	movw	r3, #4440	; 0x1158
    3a78:	f2c2 0300 	movt	r3, #8192	; 0x2000
    3a7c:	681a      	ldr	r2, [r3, #0]
    3a7e:	687b      	ldr	r3, [r7, #4]
    3a80:	18d3      	adds	r3, r2, r3
    3a82:	f103 020c 	add.w	r2, r3, #12
    3a86:	f241 1358 	movw	r3, #4440	; 0x1158
    3a8a:	f2c2 0300 	movt	r3, #8192	; 0x2000
    3a8e:	601a      	str	r2, [r3, #0]
    3a90:	68bb      	ldr	r3, [r7, #8]
    3a92:	f103 030c 	add.w	r3, r3, #12
    3a96:	e048      	b.n	3b2a <nmranet_buffer_alloc+0x136>
    3a98:	f241 1050 	movw	r0, #4432	; 0x1150
    3a9c:	f2c2 0000 	movt	r0, #8192	; 0x2000
    3aa0:	f7ff ff4a 	bl	3938 <os_mutex_lock>
    3aa4:	f241 135c 	movw	r3, #4444	; 0x115c
    3aa8:	f2c2 0300 	movt	r3, #8192	; 0x2000
    3aac:	68fa      	ldr	r2, [r7, #12]
    3aae:	f853 3022 	ldr.w	r3, [r3, r2, lsl #2]
    3ab2:	2b00      	cmp	r3, #0
    3ab4:	d011      	beq.n	3ada <nmranet_buffer_alloc+0xe6>
    3ab6:	f241 135c 	movw	r3, #4444	; 0x115c
    3aba:	f2c2 0300 	movt	r3, #8192	; 0x2000
    3abe:	68fa      	ldr	r2, [r7, #12]
    3ac0:	f853 3022 	ldr.w	r3, [r3, r2, lsl #2]
    3ac4:	60bb      	str	r3, [r7, #8]
    3ac6:	68bb      	ldr	r3, [r7, #8]
    3ac8:	6819      	ldr	r1, [r3, #0]
    3aca:	f241 135c 	movw	r3, #4444	; 0x115c
    3ace:	f2c2 0300 	movt	r3, #8192	; 0x2000
    3ad2:	68fa      	ldr	r2, [r7, #12]
    3ad4:	f843 1022 	str.w	r1, [r3, r2, lsl #2]
    3ad8:	e014      	b.n	3b04 <nmranet_buffer_alloc+0x110>
    3ada:	687b      	ldr	r3, [r7, #4]
    3adc:	f103 030c 	add.w	r3, r3, #12
    3ae0:	4618      	mov	r0, r3
    3ae2:	f00d fbbf 	bl	11264 <malloc>
    3ae6:	60b8      	str	r0, [r7, #8]
    3ae8:	f241 1358 	movw	r3, #4440	; 0x1158
    3aec:	f2c2 0300 	movt	r3, #8192	; 0x2000
    3af0:	681a      	ldr	r2, [r3, #0]
    3af2:	687b      	ldr	r3, [r7, #4]
    3af4:	18d3      	adds	r3, r2, r3
    3af6:	f103 020c 	add.w	r2, r3, #12
    3afa:	f241 1358 	movw	r3, #4440	; 0x1158
    3afe:	f2c2 0300 	movt	r3, #8192	; 0x2000
    3b02:	601a      	str	r2, [r3, #0]
    3b04:	f241 1050 	movw	r0, #4432	; 0x1150
    3b08:	f2c2 0000 	movt	r0, #8192	; 0x2000
    3b0c:	f7ff ff52 	bl	39b4 <os_mutex_unlock>
    3b10:	68bb      	ldr	r3, [r7, #8]
    3b12:	f04f 0200 	mov.w	r2, #0
    3b16:	601a      	str	r2, [r3, #0]
    3b18:	68bb      	ldr	r3, [r7, #8]
    3b1a:	687a      	ldr	r2, [r7, #4]
    3b1c:	605a      	str	r2, [r3, #4]
    3b1e:	68bb      	ldr	r3, [r7, #8]
    3b20:	687a      	ldr	r2, [r7, #4]
    3b22:	609a      	str	r2, [r3, #8]
    3b24:	68bb      	ldr	r3, [r7, #8]
    3b26:	f103 030c 	add.w	r3, r3, #12
    3b2a:	4618      	mov	r0, r3
    3b2c:	f107 0710 	add.w	r7, r7, #16
    3b30:	46bd      	mov	sp, r7
    3b32:	bd80      	pop	{r7, pc}

00003b34 <nmranet_buffer_free>:
    3b34:	b580      	push	{r7, lr}
    3b36:	b084      	sub	sp, #16
    3b38:	af00      	add	r7, sp, #0
    3b3a:	6078      	str	r0, [r7, #4]
    3b3c:	687b      	ldr	r3, [r7, #4]
    3b3e:	f1a3 030c 	sub.w	r3, r3, #12
    3b42:	60bb      	str	r3, [r7, #8]
    3b44:	f04f 0300 	mov.w	r3, #0
    3b48:	60fb      	str	r3, [r7, #12]
    3b4a:	68bb      	ldr	r3, [r7, #8]
    3b4c:	685b      	ldr	r3, [r3, #4]
    3b4e:	f1a3 0304 	sub.w	r3, r3, #4
    3b52:	2b1c      	cmp	r3, #28
    3b54:	d83c      	bhi.n	3bd0 <nmranet_buffer_free+0x9c>
    3b56:	a201      	add	r2, pc, #4	; (adr r2, 3b5c <nmranet_buffer_free+0x28>)
    3b58:	f852 f023 	ldr.w	pc, [r2, r3, lsl #2]
    3b5c:	00003c0b 	.word	0x00003c0b
    3b60:	00003bd1 	.word	0x00003bd1
    3b64:	00003bd1 	.word	0x00003bd1
    3b68:	00003bd1 	.word	0x00003bd1
    3b6c:	00003c13 	.word	0x00003c13
    3b70:	00003bd1 	.word	0x00003bd1
    3b74:	00003bd1 	.word	0x00003bd1
    3b78:	00003bd1 	.word	0x00003bd1
    3b7c:	00003bd1 	.word	0x00003bd1
    3b80:	00003bd1 	.word	0x00003bd1
    3b84:	00003bd1 	.word	0x00003bd1
    3b88:	00003bd1 	.word	0x00003bd1
    3b8c:	00003c1b 	.word	0x00003c1b
    3b90:	00003bd1 	.word	0x00003bd1
    3b94:	00003bd1 	.word	0x00003bd1
    3b98:	00003bd1 	.word	0x00003bd1
    3b9c:	00003bd1 	.word	0x00003bd1
    3ba0:	00003bd1 	.word	0x00003bd1
    3ba4:	00003bd1 	.word	0x00003bd1
    3ba8:	00003bd1 	.word	0x00003bd1
    3bac:	00003bd1 	.word	0x00003bd1
    3bb0:	00003bd1 	.word	0x00003bd1
    3bb4:	00003bd1 	.word	0x00003bd1
    3bb8:	00003bd1 	.word	0x00003bd1
    3bbc:	00003bd1 	.word	0x00003bd1
    3bc0:	00003bd1 	.word	0x00003bd1
    3bc4:	00003bd1 	.word	0x00003bd1
    3bc8:	00003bd1 	.word	0x00003bd1
    3bcc:	00003c23 	.word	0x00003c23
    3bd0:	f241 1358 	movw	r3, #4440	; 0x1158
    3bd4:	f2c2 0300 	movt	r3, #8192	; 0x2000
    3bd8:	681a      	ldr	r2, [r3, #0]
    3bda:	68bb      	ldr	r3, [r7, #8]
    3bdc:	685b      	ldr	r3, [r3, #4]
    3bde:	1ad2      	subs	r2, r2, r3
    3be0:	f241 1358 	movw	r3, #4440	; 0x1158
    3be4:	f2c2 0300 	movt	r3, #8192	; 0x2000
    3be8:	601a      	str	r2, [r3, #0]
    3bea:	f241 1358 	movw	r3, #4440	; 0x1158
    3bee:	f2c2 0300 	movt	r3, #8192	; 0x2000
    3bf2:	681b      	ldr	r3, [r3, #0]
    3bf4:	f1a3 020c 	sub.w	r2, r3, #12
    3bf8:	f241 1358 	movw	r3, #4440	; 0x1158
    3bfc:	f2c2 0300 	movt	r3, #8192	; 0x2000
    3c00:	601a      	str	r2, [r3, #0]
    3c02:	68b8      	ldr	r0, [r7, #8]
    3c04:	f00d fb36 	bl	11274 <free>
    3c08:	e02c      	b.n	3c64 <nmranet_buffer_free+0x130>
    3c0a:	f04f 0300 	mov.w	r3, #0
    3c0e:	60fb      	str	r3, [r7, #12]
    3c10:	e00b      	b.n	3c2a <nmranet_buffer_free+0xf6>
    3c12:	f04f 0301 	mov.w	r3, #1
    3c16:	60fb      	str	r3, [r7, #12]
    3c18:	e007      	b.n	3c2a <nmranet_buffer_free+0xf6>
    3c1a:	f04f 0302 	mov.w	r3, #2
    3c1e:	60fb      	str	r3, [r7, #12]
    3c20:	e003      	b.n	3c2a <nmranet_buffer_free+0xf6>
    3c22:	f04f 0303 	mov.w	r3, #3
    3c26:	60fb      	str	r3, [r7, #12]
    3c28:	bf00      	nop
    3c2a:	f241 1050 	movw	r0, #4432	; 0x1150
    3c2e:	f2c2 0000 	movt	r0, #8192	; 0x2000
    3c32:	f7ff fe81 	bl	3938 <os_mutex_lock>
    3c36:	f241 135c 	movw	r3, #4444	; 0x115c
    3c3a:	f2c2 0300 	movt	r3, #8192	; 0x2000
    3c3e:	68fa      	ldr	r2, [r7, #12]
    3c40:	f853 2022 	ldr.w	r2, [r3, r2, lsl #2]
    3c44:	68bb      	ldr	r3, [r7, #8]
    3c46:	601a      	str	r2, [r3, #0]
    3c48:	f241 135c 	movw	r3, #4444	; 0x115c
    3c4c:	f2c2 0300 	movt	r3, #8192	; 0x2000
    3c50:	68fa      	ldr	r2, [r7, #12]
    3c52:	68b9      	ldr	r1, [r7, #8]
    3c54:	f843 1022 	str.w	r1, [r3, r2, lsl #2]
    3c58:	f241 1050 	movw	r0, #4432	; 0x1150
    3c5c:	f2c2 0000 	movt	r0, #8192	; 0x2000
    3c60:	f7ff fea8 	bl	39b4 <os_mutex_unlock>
    3c64:	f107 0710 	add.w	r7, r7, #16
    3c68:	46bd      	mov	sp, r7
    3c6a:	bd80      	pop	{r7, pc}

00003c6c <nmranet_buffer_advance>:
    3c6c:	b480      	push	{r7}
    3c6e:	b085      	sub	sp, #20
    3c70:	af00      	add	r7, sp, #0
    3c72:	6078      	str	r0, [r7, #4]
    3c74:	6039      	str	r1, [r7, #0]
    3c76:	687b      	ldr	r3, [r7, #4]
    3c78:	f1a3 030c 	sub.w	r3, r3, #12
    3c7c:	60fb      	str	r3, [r7, #12]
    3c7e:	68fb      	ldr	r3, [r7, #12]
    3c80:	689a      	ldr	r2, [r3, #8]
    3c82:	683b      	ldr	r3, [r7, #0]
    3c84:	1ad2      	subs	r2, r2, r3
    3c86:	68fb      	ldr	r3, [r7, #12]
    3c88:	609a      	str	r2, [r3, #8]
    3c8a:	68fb      	ldr	r3, [r7, #12]
    3c8c:	f103 020c 	add.w	r2, r3, #12
    3c90:	68fb      	ldr	r3, [r7, #12]
    3c92:	6859      	ldr	r1, [r3, #4]
    3c94:	68fb      	ldr	r3, [r7, #12]
    3c96:	689b      	ldr	r3, [r3, #8]
    3c98:	1acb      	subs	r3, r1, r3
    3c9a:	18d3      	adds	r3, r2, r3
    3c9c:	4618      	mov	r0, r3
    3c9e:	f107 0714 	add.w	r7, r7, #20
    3ca2:	46bd      	mov	sp, r7
    3ca4:	bc80      	pop	{r7}
    3ca6:	4770      	bx	lr

00003ca8 <nmranet_buffer_position>:
    3ca8:	b480      	push	{r7}
    3caa:	b085      	sub	sp, #20
    3cac:	af00      	add	r7, sp, #0
    3cae:	6078      	str	r0, [r7, #4]
    3cb0:	687b      	ldr	r3, [r7, #4]
    3cb2:	f1a3 030c 	sub.w	r3, r3, #12
    3cb6:	60fb      	str	r3, [r7, #12]
    3cb8:	68fb      	ldr	r3, [r7, #12]
    3cba:	f103 020c 	add.w	r2, r3, #12
    3cbe:	68fb      	ldr	r3, [r7, #12]
    3cc0:	6859      	ldr	r1, [r3, #4]
    3cc2:	68fb      	ldr	r3, [r7, #12]
    3cc4:	689b      	ldr	r3, [r3, #8]
    3cc6:	1acb      	subs	r3, r1, r3
    3cc8:	18d3      	adds	r3, r2, r3
    3cca:	4618      	mov	r0, r3
    3ccc:	f107 0714 	add.w	r7, r7, #20
    3cd0:	46bd      	mov	sp, r7
    3cd2:	bc80      	pop	{r7}
    3cd4:	4770      	bx	lr
    3cd6:	bf00      	nop

00003cd8 <nmranet_buffer_size>:
    3cd8:	b480      	push	{r7}
    3cda:	b085      	sub	sp, #20
    3cdc:	af00      	add	r7, sp, #0
    3cde:	6078      	str	r0, [r7, #4]
    3ce0:	687b      	ldr	r3, [r7, #4]
    3ce2:	f1a3 030c 	sub.w	r3, r3, #12
    3ce6:	60fb      	str	r3, [r7, #12]
    3ce8:	68fb      	ldr	r3, [r7, #12]
    3cea:	685b      	ldr	r3, [r3, #4]
    3cec:	4618      	mov	r0, r3
    3cee:	f107 0714 	add.w	r7, r7, #20
    3cf2:	46bd      	mov	sp, r7
    3cf4:	bc80      	pop	{r7}
    3cf6:	4770      	bx	lr

00003cf8 <nmranet_buffer_available>:
    3cf8:	b480      	push	{r7}
    3cfa:	b085      	sub	sp, #20
    3cfc:	af00      	add	r7, sp, #0
    3cfe:	6078      	str	r0, [r7, #4]
    3d00:	687b      	ldr	r3, [r7, #4]
    3d02:	f1a3 030c 	sub.w	r3, r3, #12
    3d06:	60fb      	str	r3, [r7, #12]
    3d08:	68fb      	ldr	r3, [r7, #12]
    3d0a:	689b      	ldr	r3, [r3, #8]
    3d0c:	4618      	mov	r0, r3
    3d0e:	f107 0714 	add.w	r7, r7, #20
    3d12:	46bd      	mov	sp, r7
    3d14:	bc80      	pop	{r7}
    3d16:	4770      	bx	lr

00003d18 <nmranet_buffer_expand>:
    3d18:	b580      	push	{r7, lr}
    3d1a:	b084      	sub	sp, #16
    3d1c:	af00      	add	r7, sp, #0
    3d1e:	6078      	str	r0, [r7, #4]
    3d20:	6039      	str	r1, [r7, #0]
    3d22:	687b      	ldr	r3, [r7, #4]
    3d24:	f1a3 030c 	sub.w	r3, r3, #12
    3d28:	60fb      	str	r3, [r7, #12]
    3d2a:	6838      	ldr	r0, [r7, #0]
    3d2c:	f7ff fe62 	bl	39f4 <nmranet_buffer_alloc>
    3d30:	4603      	mov	r3, r0
    3d32:	f1a3 030c 	sub.w	r3, r3, #12
    3d36:	60bb      	str	r3, [r7, #8]
    3d38:	68bb      	ldr	r3, [r7, #8]
    3d3a:	f103 010c 	add.w	r1, r3, #12
    3d3e:	68fb      	ldr	r3, [r7, #12]
    3d40:	f103 020c 	add.w	r2, r3, #12
    3d44:	68fb      	ldr	r3, [r7, #12]
    3d46:	6858      	ldr	r0, [r3, #4]
    3d48:	68fb      	ldr	r3, [r7, #12]
    3d4a:	689b      	ldr	r3, [r3, #8]
    3d4c:	1ac3      	subs	r3, r0, r3
    3d4e:	4608      	mov	r0, r1
    3d50:	4611      	mov	r1, r2
    3d52:	461a      	mov	r2, r3
    3d54:	f00d fd84 	bl	11860 <memcpy>
    3d58:	68fb      	ldr	r3, [r7, #12]
    3d5a:	689a      	ldr	r2, [r3, #8]
    3d5c:	683b      	ldr	r3, [r7, #0]
    3d5e:	18d2      	adds	r2, r2, r3
    3d60:	68bb      	ldr	r3, [r7, #8]
    3d62:	609a      	str	r2, [r3, #8]
    3d64:	68fb      	ldr	r3, [r7, #12]
    3d66:	f103 030c 	add.w	r3, r3, #12
    3d6a:	4618      	mov	r0, r3
    3d6c:	f7ff fee2 	bl	3b34 <nmranet_buffer_free>
    3d70:	68bb      	ldr	r3, [r7, #8]
    3d72:	f103 030c 	add.w	r3, r3, #12
    3d76:	4618      	mov	r0, r3
    3d78:	f107 0710 	add.w	r7, r7, #16
    3d7c:	46bd      	mov	sp, r7
    3d7e:	bd80      	pop	{r7, pc}

00003d80 <nmranet_queue_create>:
    3d80:	b580      	push	{r7, lr}
    3d82:	b082      	sub	sp, #8
    3d84:	af00      	add	r7, sp, #0
    3d86:	f04f 0008 	mov.w	r0, #8
    3d8a:	f00d fa6b 	bl	11264 <malloc>
    3d8e:	6078      	str	r0, [r7, #4]
    3d90:	687b      	ldr	r3, [r7, #4]
    3d92:	f04f 0200 	mov.w	r2, #0
    3d96:	601a      	str	r2, [r3, #0]
    3d98:	687b      	ldr	r3, [r7, #4]
    3d9a:	f04f 0200 	mov.w	r2, #0
    3d9e:	605a      	str	r2, [r3, #4]
    3da0:	687b      	ldr	r3, [r7, #4]
    3da2:	4618      	mov	r0, r3
    3da4:	f107 0708 	add.w	r7, r7, #8
    3da8:	46bd      	mov	sp, r7
    3daa:	bd80      	pop	{r7, pc}

00003dac <nmranet_queue_insert>:
    3dac:	b580      	push	{r7, lr}
    3dae:	b084      	sub	sp, #16
    3db0:	af00      	add	r7, sp, #0
    3db2:	6078      	str	r0, [r7, #4]
    3db4:	6039      	str	r1, [r7, #0]
    3db6:	687b      	ldr	r3, [r7, #4]
    3db8:	60fb      	str	r3, [r7, #12]
    3dba:	683b      	ldr	r3, [r7, #0]
    3dbc:	f1a3 030c 	sub.w	r3, r3, #12
    3dc0:	60bb      	str	r3, [r7, #8]
    3dc2:	f241 1050 	movw	r0, #4432	; 0x1150
    3dc6:	f2c2 0000 	movt	r0, #8192	; 0x2000
    3dca:	f7ff fdb5 	bl	3938 <os_mutex_lock>
    3dce:	68fb      	ldr	r3, [r7, #12]
    3dd0:	681b      	ldr	r3, [r3, #0]
    3dd2:	2b00      	cmp	r3, #0
    3dd4:	d107      	bne.n	3de6 <nmranet_queue_insert+0x3a>
    3dd6:	68fb      	ldr	r3, [r7, #12]
    3dd8:	68ba      	ldr	r2, [r7, #8]
    3dda:	605a      	str	r2, [r3, #4]
    3ddc:	68fb      	ldr	r3, [r7, #12]
    3dde:	685a      	ldr	r2, [r3, #4]
    3de0:	68fb      	ldr	r3, [r7, #12]
    3de2:	601a      	str	r2, [r3, #0]
    3de4:	e006      	b.n	3df4 <nmranet_queue_insert+0x48>
    3de6:	68fb      	ldr	r3, [r7, #12]
    3de8:	685b      	ldr	r3, [r3, #4]
    3dea:	68ba      	ldr	r2, [r7, #8]
    3dec:	601a      	str	r2, [r3, #0]
    3dee:	68fb      	ldr	r3, [r7, #12]
    3df0:	68ba      	ldr	r2, [r7, #8]
    3df2:	605a      	str	r2, [r3, #4]
    3df4:	68bb      	ldr	r3, [r7, #8]
    3df6:	f04f 0200 	mov.w	r2, #0
    3dfa:	601a      	str	r2, [r3, #0]
    3dfc:	f241 1050 	movw	r0, #4432	; 0x1150
    3e00:	f2c2 0000 	movt	r0, #8192	; 0x2000
    3e04:	f7ff fdd6 	bl	39b4 <os_mutex_unlock>
    3e08:	f107 0710 	add.w	r7, r7, #16
    3e0c:	46bd      	mov	sp, r7
    3e0e:	bd80      	pop	{r7, pc}

00003e10 <nmranet_queue_next>:
    3e10:	b580      	push	{r7, lr}
    3e12:	b084      	sub	sp, #16
    3e14:	af00      	add	r7, sp, #0
    3e16:	6078      	str	r0, [r7, #4]
    3e18:	687b      	ldr	r3, [r7, #4]
    3e1a:	60fb      	str	r3, [r7, #12]
    3e1c:	f241 1050 	movw	r0, #4432	; 0x1150
    3e20:	f2c2 0000 	movt	r0, #8192	; 0x2000
    3e24:	f7ff fd88 	bl	3938 <os_mutex_lock>
    3e28:	68fb      	ldr	r3, [r7, #12]
    3e2a:	681b      	ldr	r3, [r3, #0]
    3e2c:	2b00      	cmp	r3, #0
    3e2e:	d108      	bne.n	3e42 <nmranet_queue_next+0x32>
    3e30:	f241 1050 	movw	r0, #4432	; 0x1150
    3e34:	f2c2 0000 	movt	r0, #8192	; 0x2000
    3e38:	f7ff fdbc 	bl	39b4 <os_mutex_unlock>
    3e3c:	f04f 0300 	mov.w	r3, #0
    3e40:	e00f      	b.n	3e62 <nmranet_queue_next+0x52>
    3e42:	68fb      	ldr	r3, [r7, #12]
    3e44:	681b      	ldr	r3, [r3, #0]
    3e46:	60bb      	str	r3, [r7, #8]
    3e48:	68bb      	ldr	r3, [r7, #8]
    3e4a:	681a      	ldr	r2, [r3, #0]
    3e4c:	68fb      	ldr	r3, [r7, #12]
    3e4e:	601a      	str	r2, [r3, #0]
    3e50:	f241 1050 	movw	r0, #4432	; 0x1150
    3e54:	f2c2 0000 	movt	r0, #8192	; 0x2000
    3e58:	f7ff fdac 	bl	39b4 <os_mutex_unlock>
    3e5c:	68bb      	ldr	r3, [r7, #8]
    3e5e:	f103 030c 	add.w	r3, r3, #12
    3e62:	4618      	mov	r0, r3
    3e64:	f107 0710 	add.w	r7, r7, #16
    3e68:	46bd      	mov	sp, r7
    3e6a:	bd80      	pop	{r7, pc}

00003e6c <nmranet_queue_empty>:
    3e6c:	b580      	push	{r7, lr}
    3e6e:	b084      	sub	sp, #16
    3e70:	af00      	add	r7, sp, #0
    3e72:	6078      	str	r0, [r7, #4]
    3e74:	687b      	ldr	r3, [r7, #4]
    3e76:	60fb      	str	r3, [r7, #12]
    3e78:	f241 1050 	movw	r0, #4432	; 0x1150
    3e7c:	f2c2 0000 	movt	r0, #8192	; 0x2000
    3e80:	f7ff fd5a 	bl	3938 <os_mutex_lock>
    3e84:	68fb      	ldr	r3, [r7, #12]
    3e86:	681b      	ldr	r3, [r3, #0]
    3e88:	2b00      	cmp	r3, #0
    3e8a:	bf14      	ite	ne
    3e8c:	2300      	movne	r3, #0
    3e8e:	2301      	moveq	r3, #1
    3e90:	60bb      	str	r3, [r7, #8]
    3e92:	f241 1050 	movw	r0, #4432	; 0x1150
    3e96:	f2c2 0000 	movt	r0, #8192	; 0x2000
    3e9a:	f7ff fd8b 	bl	39b4 <os_mutex_unlock>
    3e9e:	68bb      	ldr	r3, [r7, #8]
    3ea0:	4618      	mov	r0, r3
    3ea2:	f107 0710 	add.w	r7, r7, #16
    3ea6:	46bd      	mov	sp, r7
    3ea8:	bd80      	pop	{r7, pc}
    3eaa:	bf00      	nop

00003eac <__bswap_64>:
    3eac:	e92d 0fb0 	stmdb	sp!, {r4, r5, r7, r8, r9, sl, fp}
    3eb0:	b089      	sub	sp, #36	; 0x24
    3eb2:	af00      	add	r7, sp, #0
    3eb4:	e9c7 0106 	strd	r0, r1, [r7, #24]
    3eb8:	69fb      	ldr	r3, [r7, #28]
    3eba:	ea4f 6313 	mov.w	r3, r3, lsr #24
    3ebe:	613b      	str	r3, [r7, #16]
    3ec0:	f04f 0000 	mov.w	r0, #0
    3ec4:	6178      	str	r0, [r7, #20]
    3ec6:	e9d7 0106 	ldrd	r0, r1, [r7, #24]
    3eca:	f04f 0200 	mov.w	r2, #0
    3ece:	f44f 037f 	mov.w	r3, #16711680	; 0xff0000
    3ed2:	ea02 0200 	and.w	r2, r2, r0
    3ed6:	ea03 0301 	and.w	r3, r3, r1
    3eda:	ea4f 2113 	mov.w	r1, r3, lsr #8
    3ede:	60b9      	str	r1, [r7, #8]
    3ee0:	f04f 0200 	mov.w	r2, #0
    3ee4:	60fa      	str	r2, [r7, #12]
    3ee6:	e9d7 2304 	ldrd	r2, r3, [r7, #16]
    3eea:	e9d7 0102 	ldrd	r0, r1, [r7, #8]
    3eee:	ea42 0200 	orr.w	r2, r2, r0
    3ef2:	ea43 0301 	orr.w	r3, r3, r1
    3ef6:	e9c7 2300 	strd	r2, r3, [r7]
    3efa:	e9d7 0106 	ldrd	r0, r1, [r7, #24]
    3efe:	f04f 0200 	mov.w	r2, #0
    3f02:	f44f 437f 	mov.w	r3, #65280	; 0xff00
    3f06:	ea02 0200 	and.w	r2, r2, r0
    3f0a:	ea03 0301 	and.w	r3, r3, r1
    3f0e:	ea4f 2103 	mov.w	r1, r3, lsl #8
    3f12:	ea4f 6412 	mov.w	r4, r2, lsr #24
    3f16:	430c      	orrs	r4, r1
    3f18:	ea4f 6513 	mov.w	r5, r3, lsr #24
    3f1c:	e9d7 2300 	ldrd	r2, r3, [r7]
    3f20:	ea44 0402 	orr.w	r4, r4, r2
    3f24:	ea45 0503 	orr.w	r5, r5, r3
    3f28:	e9d7 0106 	ldrd	r0, r1, [r7, #24]
    3f2c:	f04f 0200 	mov.w	r2, #0
    3f30:	f04f 03ff 	mov.w	r3, #255	; 0xff
    3f34:	ea02 0200 	and.w	r2, r2, r0
    3f38:	ea03 0301 	and.w	r3, r3, r1
    3f3c:	ea4f 6103 	mov.w	r1, r3, lsl #24
    3f40:	ea4f 2a12 	mov.w	sl, r2, lsr #8
    3f44:	ea41 0a0a 	orr.w	sl, r1, sl
    3f48:	ea4f 2b13 	mov.w	fp, r3, lsr #8
    3f4c:	ea44 000a 	orr.w	r0, r4, sl
    3f50:	ea45 010b 	orr.w	r1, r5, fp
    3f54:	e9d7 4506 	ldrd	r4, r5, [r7, #24]
    3f58:	f04f 427f 	mov.w	r2, #4278190080	; 0xff000000
    3f5c:	f04f 0300 	mov.w	r3, #0
    3f60:	ea02 0204 	and.w	r2, r2, r4
    3f64:	ea03 0305 	and.w	r3, r3, r5
    3f68:	ea4f 6403 	mov.w	r4, r3, lsl #24
    3f6c:	ea4f 2812 	mov.w	r8, r2, lsr #8
    3f70:	ea44 0808 	orr.w	r8, r4, r8
    3f74:	ea4f 2913 	mov.w	r9, r3, lsr #8
    3f78:	ea40 0208 	orr.w	r2, r0, r8
    3f7c:	ea41 0309 	orr.w	r3, r1, r9
    3f80:	4610      	mov	r0, r2
    3f82:	4619      	mov	r1, r3
    3f84:	f107 0724 	add.w	r7, r7, #36	; 0x24
    3f88:	46bd      	mov	sp, r7
    3f8a:	e8bd 0fb0 	ldmia.w	sp!, {r4, r5, r7, r8, r9, sl, fp}
    3f8e:	4770      	bx	lr

00003f90 <os_mutex_lock>:
    3f90:	b580      	push	{r7, lr}
    3f92:	b082      	sub	sp, #8
    3f94:	af00      	add	r7, sp, #0
    3f96:	6078      	str	r0, [r7, #4]
    3f98:	f003 fb7a 	bl	7690 <vTaskSuspendAll>
    3f9c:	687b      	ldr	r3, [r7, #4]
    3f9e:	681b      	ldr	r3, [r3, #0]
    3fa0:	2b00      	cmp	r3, #0
    3fa2:	d112      	bne.n	3fca <os_mutex_lock+0x3a>
    3fa4:	687b      	ldr	r3, [r7, #4]
    3fa6:	791b      	ldrb	r3, [r3, #4]
    3fa8:	2b00      	cmp	r3, #0
    3faa:	d007      	beq.n	3fbc <os_mutex_lock+0x2c>
    3fac:	f04f 0004 	mov.w	r0, #4
    3fb0:	f002 fd96 	bl	6ae0 <xQueueCreateMutex>
    3fb4:	4602      	mov	r2, r0
    3fb6:	687b      	ldr	r3, [r7, #4]
    3fb8:	601a      	str	r2, [r3, #0]
    3fba:	e006      	b.n	3fca <os_mutex_lock+0x3a>
    3fbc:	f04f 0001 	mov.w	r0, #1
    3fc0:	f002 fd8e 	bl	6ae0 <xQueueCreateMutex>
    3fc4:	4602      	mov	r2, r0
    3fc6:	687b      	ldr	r3, [r7, #4]
    3fc8:	601a      	str	r2, [r3, #0]
    3fca:	f003 fb73 	bl	76b4 <xTaskResumeAll>
    3fce:	687b      	ldr	r3, [r7, #4]
    3fd0:	791b      	ldrb	r3, [r3, #4]
    3fd2:	2b00      	cmp	r3, #0
    3fd4:	d007      	beq.n	3fe6 <os_mutex_lock+0x56>
    3fd6:	687b      	ldr	r3, [r7, #4]
    3fd8:	681b      	ldr	r3, [r3, #0]
    3fda:	4618      	mov	r0, r3
    3fdc:	f04f 31ff 	mov.w	r1, #4294967295
    3fe0:	f002 fdf6 	bl	6bd0 <xQueueTakeMutexRecursive>
    3fe4:	e00a      	b.n	3ffc <os_mutex_lock+0x6c>
    3fe6:	687b      	ldr	r3, [r7, #4]
    3fe8:	681b      	ldr	r3, [r3, #0]
    3fea:	4618      	mov	r0, r3
    3fec:	f04f 0100 	mov.w	r1, #0
    3ff0:	f04f 32ff 	mov.w	r2, #4294967295
    3ff4:	f04f 0300 	mov.w	r3, #0
    3ff8:	f002 ff08 	bl	6e0c <xQueueGenericReceive>
    3ffc:	f04f 0300 	mov.w	r3, #0
    4000:	4618      	mov	r0, r3
    4002:	f107 0708 	add.w	r7, r7, #8
    4006:	46bd      	mov	sp, r7
    4008:	bd80      	pop	{r7, pc}
    400a:	bf00      	nop

0000400c <os_mutex_unlock>:
    400c:	b580      	push	{r7, lr}
    400e:	b082      	sub	sp, #8
    4010:	af00      	add	r7, sp, #0
    4012:	6078      	str	r0, [r7, #4]
    4014:	687b      	ldr	r3, [r7, #4]
    4016:	791b      	ldrb	r3, [r3, #4]
    4018:	2b00      	cmp	r3, #0
    401a:	d005      	beq.n	4028 <os_mutex_unlock+0x1c>
    401c:	687b      	ldr	r3, [r7, #4]
    401e:	681b      	ldr	r3, [r3, #0]
    4020:	4618      	mov	r0, r3
    4022:	f002 fda9 	bl	6b78 <xQueueGiveMutexRecursive>
    4026:	e00a      	b.n	403e <os_mutex_unlock+0x32>
    4028:	687b      	ldr	r3, [r7, #4]
    402a:	681b      	ldr	r3, [r3, #0]
    402c:	4618      	mov	r0, r3
    402e:	f04f 0100 	mov.w	r1, #0
    4032:	f04f 0200 	mov.w	r2, #0
    4036:	f04f 0300 	mov.w	r3, #0
    403a:	f002 fe11 	bl	6c60 <xQueueGenericSend>
    403e:	f04f 0300 	mov.w	r3, #0
    4042:	4618      	mov	r0, r3
    4044:	f107 0708 	add.w	r7, r7, #8
    4048:	46bd      	mov	sp, r7
    404a:	bd80      	pop	{r7, pc}

0000404c <event_compare>:
    404c:	b480      	push	{r7}
    404e:	b083      	sub	sp, #12
    4050:	af00      	add	r7, sp, #0
    4052:	6078      	str	r0, [r7, #4]
    4054:	6039      	str	r1, [r7, #0]
    4056:	687b      	ldr	r3, [r7, #4]
    4058:	e9d3 0104 	ldrd	r0, r1, [r3, #16]
    405c:	683b      	ldr	r3, [r7, #0]
    405e:	e9d3 2304 	ldrd	r2, r3, [r3, #16]
    4062:	1a82      	subs	r2, r0, r2
    4064:	eb61 0303 	sbc.w	r3, r1, r3
    4068:	4610      	mov	r0, r2
    406a:	4619      	mov	r1, r3
    406c:	f107 070c 	add.w	r7, r7, #12
    4070:	46bd      	mov	sp, r7
    4072:	bc80      	pop	{r7}
    4074:	4770      	bx	lr
    4076:	bf00      	nop

00004078 <event_tree_RB_INSERT_COLOR>:
    4078:	b480      	push	{r7}
    407a:	b087      	sub	sp, #28
    407c:	af00      	add	r7, sp, #0
    407e:	6078      	str	r0, [r7, #4]
    4080:	6039      	str	r1, [r7, #0]
    4082:	e121      	b.n	42c8 <event_tree_RB_INSERT_COLOR+0x250>
    4084:	697b      	ldr	r3, [r7, #20]
    4086:	689b      	ldr	r3, [r3, #8]
    4088:	613b      	str	r3, [r7, #16]
    408a:	693b      	ldr	r3, [r7, #16]
    408c:	681a      	ldr	r2, [r3, #0]
    408e:	697b      	ldr	r3, [r7, #20]
    4090:	429a      	cmp	r2, r3
    4092:	f040 808d 	bne.w	41b0 <event_tree_RB_INSERT_COLOR+0x138>
    4096:	693b      	ldr	r3, [r7, #16]
    4098:	685b      	ldr	r3, [r3, #4]
    409a:	60fb      	str	r3, [r7, #12]
    409c:	68fb      	ldr	r3, [r7, #12]
    409e:	2b00      	cmp	r3, #0
    40a0:	d012      	beq.n	40c8 <event_tree_RB_INSERT_COLOR+0x50>
    40a2:	68fb      	ldr	r3, [r7, #12]
    40a4:	68db      	ldr	r3, [r3, #12]
    40a6:	2b01      	cmp	r3, #1
    40a8:	d10e      	bne.n	40c8 <event_tree_RB_INSERT_COLOR+0x50>
    40aa:	68fb      	ldr	r3, [r7, #12]
    40ac:	f04f 0200 	mov.w	r2, #0
    40b0:	60da      	str	r2, [r3, #12]
    40b2:	697b      	ldr	r3, [r7, #20]
    40b4:	f04f 0200 	mov.w	r2, #0
    40b8:	60da      	str	r2, [r3, #12]
    40ba:	693b      	ldr	r3, [r7, #16]
    40bc:	f04f 0201 	mov.w	r2, #1
    40c0:	60da      	str	r2, [r3, #12]
    40c2:	693b      	ldr	r3, [r7, #16]
    40c4:	603b      	str	r3, [r7, #0]
    40c6:	e0ff      	b.n	42c8 <event_tree_RB_INSERT_COLOR+0x250>
    40c8:	697b      	ldr	r3, [r7, #20]
    40ca:	685a      	ldr	r2, [r3, #4]
    40cc:	683b      	ldr	r3, [r7, #0]
    40ce:	429a      	cmp	r2, r3
    40d0:	d135      	bne.n	413e <event_tree_RB_INSERT_COLOR+0xc6>
    40d2:	697b      	ldr	r3, [r7, #20]
    40d4:	685b      	ldr	r3, [r3, #4]
    40d6:	60fb      	str	r3, [r7, #12]
    40d8:	68fb      	ldr	r3, [r7, #12]
    40da:	681a      	ldr	r2, [r3, #0]
    40dc:	697b      	ldr	r3, [r7, #20]
    40de:	605a      	str	r2, [r3, #4]
    40e0:	697b      	ldr	r3, [r7, #20]
    40e2:	685b      	ldr	r3, [r3, #4]
    40e4:	2b00      	cmp	r3, #0
    40e6:	d003      	beq.n	40f0 <event_tree_RB_INSERT_COLOR+0x78>
    40e8:	68fb      	ldr	r3, [r7, #12]
    40ea:	681b      	ldr	r3, [r3, #0]
    40ec:	697a      	ldr	r2, [r7, #20]
    40ee:	609a      	str	r2, [r3, #8]
    40f0:	697b      	ldr	r3, [r7, #20]
    40f2:	689a      	ldr	r2, [r3, #8]
    40f4:	68fb      	ldr	r3, [r7, #12]
    40f6:	609a      	str	r2, [r3, #8]
    40f8:	68fb      	ldr	r3, [r7, #12]
    40fa:	689b      	ldr	r3, [r3, #8]
    40fc:	2b00      	cmp	r3, #0
    40fe:	d00f      	beq.n	4120 <event_tree_RB_INSERT_COLOR+0xa8>
    4100:	697b      	ldr	r3, [r7, #20]
    4102:	689b      	ldr	r3, [r3, #8]
    4104:	681a      	ldr	r2, [r3, #0]
    4106:	697b      	ldr	r3, [r7, #20]
    4108:	429a      	cmp	r2, r3
    410a:	d104      	bne.n	4116 <event_tree_RB_INSERT_COLOR+0x9e>
    410c:	697b      	ldr	r3, [r7, #20]
    410e:	689b      	ldr	r3, [r3, #8]
    4110:	68fa      	ldr	r2, [r7, #12]
    4112:	601a      	str	r2, [r3, #0]
    4114:	e007      	b.n	4126 <event_tree_RB_INSERT_COLOR+0xae>
    4116:	697b      	ldr	r3, [r7, #20]
    4118:	689b      	ldr	r3, [r3, #8]
    411a:	68fa      	ldr	r2, [r7, #12]
    411c:	605a      	str	r2, [r3, #4]
    411e:	e002      	b.n	4126 <event_tree_RB_INSERT_COLOR+0xae>
    4120:	687b      	ldr	r3, [r7, #4]
    4122:	68fa      	ldr	r2, [r7, #12]
    4124:	601a      	str	r2, [r3, #0]
    4126:	68fb      	ldr	r3, [r7, #12]
    4128:	697a      	ldr	r2, [r7, #20]
    412a:	601a      	str	r2, [r3, #0]
    412c:	697b      	ldr	r3, [r7, #20]
    412e:	68fa      	ldr	r2, [r7, #12]
    4130:	609a      	str	r2, [r3, #8]
    4132:	697b      	ldr	r3, [r7, #20]
    4134:	60fb      	str	r3, [r7, #12]
    4136:	683b      	ldr	r3, [r7, #0]
    4138:	617b      	str	r3, [r7, #20]
    413a:	68fb      	ldr	r3, [r7, #12]
    413c:	603b      	str	r3, [r7, #0]
    413e:	697b      	ldr	r3, [r7, #20]
    4140:	f04f 0200 	mov.w	r2, #0
    4144:	60da      	str	r2, [r3, #12]
    4146:	693b      	ldr	r3, [r7, #16]
    4148:	f04f 0201 	mov.w	r2, #1
    414c:	60da      	str	r2, [r3, #12]
    414e:	693b      	ldr	r3, [r7, #16]
    4150:	681b      	ldr	r3, [r3, #0]
    4152:	60fb      	str	r3, [r7, #12]
    4154:	68fb      	ldr	r3, [r7, #12]
    4156:	685a      	ldr	r2, [r3, #4]
    4158:	693b      	ldr	r3, [r7, #16]
    415a:	601a      	str	r2, [r3, #0]
    415c:	693b      	ldr	r3, [r7, #16]
    415e:	681b      	ldr	r3, [r3, #0]
    4160:	2b00      	cmp	r3, #0
    4162:	d003      	beq.n	416c <event_tree_RB_INSERT_COLOR+0xf4>
    4164:	68fb      	ldr	r3, [r7, #12]
    4166:	685b      	ldr	r3, [r3, #4]
    4168:	693a      	ldr	r2, [r7, #16]
    416a:	609a      	str	r2, [r3, #8]
    416c:	693b      	ldr	r3, [r7, #16]
    416e:	689a      	ldr	r2, [r3, #8]
    4170:	68fb      	ldr	r3, [r7, #12]
    4172:	609a      	str	r2, [r3, #8]
    4174:	68fb      	ldr	r3, [r7, #12]
    4176:	689b      	ldr	r3, [r3, #8]
    4178:	2b00      	cmp	r3, #0
    417a:	d00f      	beq.n	419c <event_tree_RB_INSERT_COLOR+0x124>
    417c:	693b      	ldr	r3, [r7, #16]
    417e:	689b      	ldr	r3, [r3, #8]
    4180:	681a      	ldr	r2, [r3, #0]
    4182:	693b      	ldr	r3, [r7, #16]
    4184:	429a      	cmp	r2, r3
    4186:	d104      	bne.n	4192 <event_tree_RB_INSERT_COLOR+0x11a>
    4188:	693b      	ldr	r3, [r7, #16]
    418a:	689b      	ldr	r3, [r3, #8]
    418c:	68fa      	ldr	r2, [r7, #12]
    418e:	601a      	str	r2, [r3, #0]
    4190:	e007      	b.n	41a2 <event_tree_RB_INSERT_COLOR+0x12a>
    4192:	693b      	ldr	r3, [r7, #16]
    4194:	689b      	ldr	r3, [r3, #8]
    4196:	68fa      	ldr	r2, [r7, #12]
    4198:	605a      	str	r2, [r3, #4]
    419a:	e002      	b.n	41a2 <event_tree_RB_INSERT_COLOR+0x12a>
    419c:	687b      	ldr	r3, [r7, #4]
    419e:	68fa      	ldr	r2, [r7, #12]
    41a0:	601a      	str	r2, [r3, #0]
    41a2:	68fb      	ldr	r3, [r7, #12]
    41a4:	693a      	ldr	r2, [r7, #16]
    41a6:	605a      	str	r2, [r3, #4]
    41a8:	693b      	ldr	r3, [r7, #16]
    41aa:	68fa      	ldr	r2, [r7, #12]
    41ac:	609a      	str	r2, [r3, #8]
    41ae:	e08b      	b.n	42c8 <event_tree_RB_INSERT_COLOR+0x250>
    41b0:	693b      	ldr	r3, [r7, #16]
    41b2:	681b      	ldr	r3, [r3, #0]
    41b4:	60fb      	str	r3, [r7, #12]
    41b6:	68fb      	ldr	r3, [r7, #12]
    41b8:	2b00      	cmp	r3, #0
    41ba:	d012      	beq.n	41e2 <event_tree_RB_INSERT_COLOR+0x16a>
    41bc:	68fb      	ldr	r3, [r7, #12]
    41be:	68db      	ldr	r3, [r3, #12]
    41c0:	2b01      	cmp	r3, #1
    41c2:	d10e      	bne.n	41e2 <event_tree_RB_INSERT_COLOR+0x16a>
    41c4:	68fb      	ldr	r3, [r7, #12]
    41c6:	f04f 0200 	mov.w	r2, #0
    41ca:	60da      	str	r2, [r3, #12]
    41cc:	697b      	ldr	r3, [r7, #20]
    41ce:	f04f 0200 	mov.w	r2, #0
    41d2:	60da      	str	r2, [r3, #12]
    41d4:	693b      	ldr	r3, [r7, #16]
    41d6:	f04f 0201 	mov.w	r2, #1
    41da:	60da      	str	r2, [r3, #12]
    41dc:	693b      	ldr	r3, [r7, #16]
    41de:	603b      	str	r3, [r7, #0]
    41e0:	e072      	b.n	42c8 <event_tree_RB_INSERT_COLOR+0x250>
    41e2:	697b      	ldr	r3, [r7, #20]
    41e4:	681a      	ldr	r2, [r3, #0]
    41e6:	683b      	ldr	r3, [r7, #0]
    41e8:	429a      	cmp	r2, r3
    41ea:	d135      	bne.n	4258 <event_tree_RB_INSERT_COLOR+0x1e0>
    41ec:	697b      	ldr	r3, [r7, #20]
    41ee:	681b      	ldr	r3, [r3, #0]
    41f0:	60fb      	str	r3, [r7, #12]
    41f2:	68fb      	ldr	r3, [r7, #12]
    41f4:	685a      	ldr	r2, [r3, #4]
    41f6:	697b      	ldr	r3, [r7, #20]
    41f8:	601a      	str	r2, [r3, #0]
    41fa:	697b      	ldr	r3, [r7, #20]
    41fc:	681b      	ldr	r3, [r3, #0]
    41fe:	2b00      	cmp	r3, #0
    4200:	d003      	beq.n	420a <event_tree_RB_INSERT_COLOR+0x192>
    4202:	68fb      	ldr	r3, [r7, #12]
    4204:	685b      	ldr	r3, [r3, #4]
    4206:	697a      	ldr	r2, [r7, #20]
    4208:	609a      	str	r2, [r3, #8]
    420a:	697b      	ldr	r3, [r7, #20]
    420c:	689a      	ldr	r2, [r3, #8]
    420e:	68fb      	ldr	r3, [r7, #12]
    4210:	609a      	str	r2, [r3, #8]
    4212:	68fb      	ldr	r3, [r7, #12]
    4214:	689b      	ldr	r3, [r3, #8]
    4216:	2b00      	cmp	r3, #0
    4218:	d00f      	beq.n	423a <event_tree_RB_INSERT_COLOR+0x1c2>
    421a:	697b      	ldr	r3, [r7, #20]
    421c:	689b      	ldr	r3, [r3, #8]
    421e:	681a      	ldr	r2, [r3, #0]
    4220:	697b      	ldr	r3, [r7, #20]
    4222:	429a      	cmp	r2, r3
    4224:	d104      	bne.n	4230 <event_tree_RB_INSERT_COLOR+0x1b8>
    4226:	697b      	ldr	r3, [r7, #20]
    4228:	689b      	ldr	r3, [r3, #8]
    422a:	68fa      	ldr	r2, [r7, #12]
    422c:	601a      	str	r2, [r3, #0]
    422e:	e007      	b.n	4240 <event_tree_RB_INSERT_COLOR+0x1c8>
    4230:	697b      	ldr	r3, [r7, #20]
    4232:	689b      	ldr	r3, [r3, #8]
    4234:	68fa      	ldr	r2, [r7, #12]
    4236:	605a      	str	r2, [r3, #4]
    4238:	e002      	b.n	4240 <event_tree_RB_INSERT_COLOR+0x1c8>
    423a:	687b      	ldr	r3, [r7, #4]
    423c:	68fa      	ldr	r2, [r7, #12]
    423e:	601a      	str	r2, [r3, #0]
    4240:	68fb      	ldr	r3, [r7, #12]
    4242:	697a      	ldr	r2, [r7, #20]
    4244:	605a      	str	r2, [r3, #4]
    4246:	697b      	ldr	r3, [r7, #20]
    4248:	68fa      	ldr	r2, [r7, #12]
    424a:	609a      	str	r2, [r3, #8]
    424c:	697b      	ldr	r3, [r7, #20]
    424e:	60fb      	str	r3, [r7, #12]
    4250:	683b      	ldr	r3, [r7, #0]
    4252:	617b      	str	r3, [r7, #20]
    4254:	68fb      	ldr	r3, [r7, #12]
    4256:	603b      	str	r3, [r7, #0]
    4258:	697b      	ldr	r3, [r7, #20]
    425a:	f04f 0200 	mov.w	r2, #0
    425e:	60da      	str	r2, [r3, #12]
    4260:	693b      	ldr	r3, [r7, #16]
    4262:	f04f 0201 	mov.w	r2, #1
    4266:	60da      	str	r2, [r3, #12]
    4268:	693b      	ldr	r3, [r7, #16]
    426a:	685b      	ldr	r3, [r3, #4]
    426c:	60fb      	str	r3, [r7, #12]
    426e:	68fb      	ldr	r3, [r7, #12]
    4270:	681a      	ldr	r2, [r3, #0]
    4272:	693b      	ldr	r3, [r7, #16]
    4274:	605a      	str	r2, [r3, #4]
    4276:	693b      	ldr	r3, [r7, #16]
    4278:	685b      	ldr	r3, [r3, #4]
    427a:	2b00      	cmp	r3, #0
    427c:	d003      	beq.n	4286 <event_tree_RB_INSERT_COLOR+0x20e>
    427e:	68fb      	ldr	r3, [r7, #12]
    4280:	681b      	ldr	r3, [r3, #0]
    4282:	693a      	ldr	r2, [r7, #16]
    4284:	609a      	str	r2, [r3, #8]
    4286:	693b      	ldr	r3, [r7, #16]
    4288:	689a      	ldr	r2, [r3, #8]
    428a:	68fb      	ldr	r3, [r7, #12]
